"".pointer0_0 STEXT nosplit size=11 args=0x10 locals=0x0
	0x0000 00000 (stack_maps.go:25)	TEXT	"".pointer0_0(SB), NOSPLIT, $0-16
	0x0000 00000 (stack_maps.go:25)	FUNCDATA	$0, gclocals·f207267fbf96a0178e8758c6e3e0ce28(SB)
	0x0000 00000 (stack_maps.go:25)	FUNCDATA	$1, gclocals·33cdeccccebe80329f1fdbee7f5874cb(SB)
	0x0000 00000 (stack_maps.go:25)	MOVQ	"".a+8(SP), AX
	0x0005 00005 (stack_maps.go:26)	MOVQ	AX, "".~r1+16(SP)
	0x000a 00010 (stack_maps.go:26)	RET
	0x0000 48 8b 44 24 08 48 89 44 24 10 c3                 H.D$.H.D$..
"".func1_argptr1_0 STEXT nosplit size=37 args=0x10 locals=0x0
	0x0000 00000 (stack_maps.go:29)	TEXT	"".func1_argptr1_0(SB), NOSPLIT, $0-16
	0x0000 00000 (stack_maps.go:29)	FUNCDATA	$0, gclocals·aef1f7ba6e2630c93a51843d99f5a28a(SB)
	0x0000 00000 (stack_maps.go:29)	FUNCDATA	$1, gclocals·33cdeccccebe80329f1fdbee7f5874cb(SB)
	0x0000 00000 (stack_maps.go:30)	MOVQ	""._0(SB), AX
	0x0007 00007 (stack_maps.go:30)	MOVQ	"".a+8(SP), CX
	0x000c 00012 (stack_maps.go:30)	CMPQ	CX, AX
	0x000f 00015 (stack_maps.go:30)	JNE	27
	0x0011 00017 (stack_maps.go:31)	MOVQ	$1, "".~r1+16(SP)
	0x001a 00026 (stack_maps.go:31)	RET
	0x001b 00027 (stack_maps.go:33)	MOVQ	$0, "".~r1+16(SP)
	0x0024 00036 (stack_maps.go:33)	RET
	0x0000 48 8b 05 00 00 00 00 48 8b 4c 24 08 48 39 c1 75  H......H.L$.H9.u
	0x0010 0a 48 c7 44 24 10 01 00 00 00 c3 48 c7 44 24 10  .H.D$......H.D$.
	0x0020 00 00 00 00 c3                                   .....
	rel 3+4 t=15 ""._0+0
"".func2_argptr2_0 STEXT nosplit size=25 args=0x18 locals=0x0
	0x0000 00000 (stack_maps.go:37)	TEXT	"".func2_argptr2_0(SB), NOSPLIT, $0-24
	0x0000 00000 (stack_maps.go:37)	FUNCDATA	$0, gclocals·8f9cec06d1ae35cc9900c511c5e4bdab(SB)
	0x0000 00000 (stack_maps.go:37)	FUNCDATA	$1, gclocals·33cdeccccebe80329f1fdbee7f5874cb(SB)
	0x0000 00000 (stack_maps.go:37)	MOVQ	"".a+8(SP), AX
	0x0005 00005 (stack_maps.go:37)	MOVQ	"".b+16(SP), CX
	0x000a 00010 (stack_maps.go:39)	CMPQ	AX, CX
	0x000d 00013 (stack_maps.go:39)	SETEQ	AL
	0x0010 00016 (stack_maps.go:42)	MOVBLZX	AL, AX
	0x0013 00019 (stack_maps.go:42)	MOVQ	AX, "".~r2+24(SP)
	0x0018 00024 (stack_maps.go:42)	RET
	0x0000 48 8b 44 24 08 48 8b 4c 24 10 48 39 c8 0f 94 c0  H.D$.H.L$.H9....
	0x0010 0f b6 c0 48 89 44 24 18 c3                       ...H.D$..
"".func2_argptr2_2 STEXT size=175 args=0x20 locals=0x20
	0x0000 00000 (stack_maps.go:45)	TEXT	"".func2_argptr2_2(SB), $32-32
	0x0000 00000 (stack_maps.go:45)	MOVQ	(TLS), CX
	0x0009 00009 (stack_maps.go:45)	CMPQ	SP, 16(CX)
	0x000d 00013 (stack_maps.go:45)	JLS	165
	0x0013 00019 (stack_maps.go:45)	SUBQ	$32, SP
	0x0017 00023 (stack_maps.go:45)	MOVQ	BP, 24(SP)
	0x001c 00028 (stack_maps.go:45)	LEAQ	24(SP), BP
	0x0021 00033 (stack_maps.go:45)	FUNCDATA	$0, gclocals·d7e90e31b8caf40b4a816bc6493d0278(SB)
	0x0021 00033 (stack_maps.go:45)	FUNCDATA	$1, gclocals·9fb7f0986f647f17cb53dda1484e0f7a(SB)
	0x0021 00033 (stack_maps.go:45)	LEAQ	type.*int(SB), AX
	0x0028 00040 (stack_maps.go:45)	MOVQ	AX, (SP)
	0x002c 00044 (stack_maps.go:45)	PCDATA	$0, $0
	0x002c 00044 (stack_maps.go:45)	CALL	runtime.newobject(SB)
	0x0031 00049 (stack_maps.go:45)	MOVQ	8(SP), DI
	0x0036 00054 (stack_maps.go:45)	MOVQ	DI, "".&a+16(SP)
	0x003b 00059 (stack_maps.go:45)	MOVL	runtime.writeBarrier(SB), AX
	0x0041 00065 (stack_maps.go:45)	TESTL	AX, AX
	0x0043 00067 (stack_maps.go:45)	JNE	153
	0x0045 00069 (stack_maps.go:45)	MOVQ	"".a+40(SP), AX
	0x004a 00074 (stack_maps.go:45)	MOVQ	AX, (DI)
	0x004d 00077 (stack_maps.go:45)	LEAQ	type.*int(SB), AX
	0x0054 00084 (stack_maps.go:45)	MOVQ	AX, (SP)
	0x0058 00088 (stack_maps.go:45)	PCDATA	$0, $1
	0x0058 00088 (stack_maps.go:45)	CALL	runtime.newobject(SB)
	0x005d 00093 (stack_maps.go:45)	MOVL	runtime.writeBarrier(SB), AX
	0x0063 00099 (stack_maps.go:45)	MOVQ	8(SP), DI
	0x0068 00104 (stack_maps.go:45)	TESTL	AX, AX
	0x006a 00106 (stack_maps.go:45)	JNE	141
	0x006c 00108 (stack_maps.go:45)	MOVQ	"".b+48(SP), AX
	0x0071 00113 (stack_maps.go:45)	MOVQ	AX, (DI)
	0x0074 00116 (stack_maps.go:46)	MOVQ	"".&a+16(SP), AX
	0x0079 00121 (stack_maps.go:46)	MOVQ	AX, "".A+56(SP)
	0x007e 00126 (stack_maps.go:46)	MOVQ	DI, "".B+64(SP)
	0x0083 00131 (stack_maps.go:46)	MOVQ	24(SP), BP
	0x0088 00136 (stack_maps.go:46)	ADDQ	$32, SP
	0x008c 00140 (stack_maps.go:46)	RET
	0x008d 00141 (stack_maps.go:46)	MOVQ	"".b+48(SP), AX
	0x0092 00146 (stack_maps.go:45)	CALL	runtime.gcWriteBarrier(SB)
	0x0097 00151 (stack_maps.go:45)	JMP	116
	0x0099 00153 (stack_maps.go:45)	MOVQ	"".a+40(SP), AX
	0x009e 00158 (stack_maps.go:45)	CALL	runtime.gcWriteBarrier(SB)
	0x00a3 00163 (stack_maps.go:45)	JMP	77
	0x00a5 00165 (stack_maps.go:45)	NOP
	0x00a5 00165 (stack_maps.go:45)	PCDATA	$0, $-1
	0x00a5 00165 (stack_maps.go:45)	CALL	runtime.morestack_noctxt(SB)
	0x00aa 00170 (stack_maps.go:45)	JMP	0
	0x0000 64 48 8b 0c 25 00 00 00 00 48 3b 61 10 0f 86 92  dH..%....H;a....
	0x0010 00 00 00 48 83 ec 20 48 89 6c 24 18 48 8d 6c 24  ...H.. H.l$.H.l$
	0x0020 18 48 8d 05 00 00 00 00 48 89 04 24 e8 00 00 00  .H......H..$....
	0x0030 00 48 8b 7c 24 08 48 89 7c 24 10 8b 05 00 00 00  .H.|$.H.|$......
	0x0040 00 85 c0 75 54 48 8b 44 24 28 48 89 07 48 8d 05  ...uTH.D$(H..H..
	0x0050 00 00 00 00 48 89 04 24 e8 00 00 00 00 8b 05 00  ....H..$........
	0x0060 00 00 00 48 8b 7c 24 08 85 c0 75 21 48 8b 44 24  ...H.|$...u!H.D$
	0x0070 30 48 89 07 48 8b 44 24 10 48 89 44 24 38 48 89  0H..H.D$.H.D$8H.
	0x0080 7c 24 40 48 8b 6c 24 18 48 83 c4 20 c3 48 8b 44  |$@H.l$.H.. .H.D
	0x0090 24 30 e8 00 00 00 00 eb db 48 8b 44 24 28 e8 00  $0.......H.D$(..
	0x00a0 00 00 00 eb a8 e8 00 00 00 00 e9 51 ff ff ff     ...........Q...
	rel 5+4 t=16 TLS+0
	rel 36+4 t=15 type.*int+0
	rel 45+4 t=8 runtime.newobject+0
	rel 61+4 t=15 runtime.writeBarrier+0
	rel 80+4 t=15 type.*int+0
	rel 89+4 t=8 runtime.newobject+0
	rel 95+4 t=15 runtime.writeBarrier+0
	rel 147+4 t=8 runtime.gcWriteBarrier+0
	rel 159+4 t=8 runtime.gcWriteBarrier+0
	rel 166+4 t=8 runtime.morestack_noctxt+0
"".func3_argptr3_0 STEXT nosplit size=44 args=0x20 locals=0x0
	0x0000 00000 (stack_maps.go:49)	TEXT	"".func3_argptr3_0(SB), NOSPLIT, $0-32
	0x0000 00000 (stack_maps.go:49)	FUNCDATA	$0, gclocals·41e09b51c5c69a07e9cde7306b03f8c0(SB)
	0x0000 00000 (stack_maps.go:49)	FUNCDATA	$1, gclocals·33cdeccccebe80329f1fdbee7f5874cb(SB)
	0x0000 00000 (stack_maps.go:49)	MOVQ	"".b+16(SP), AX
	0x0005 00005 (stack_maps.go:49)	MOVQ	"".a+8(SP), CX
	0x000a 00010 (stack_maps.go:51)	CMPQ	AX, CX
	0x000d 00013 (stack_maps.go:51)	SETEQ	CL
	0x0010 00016 (stack_maps.go:57)	MOVBLZX	CL, CX
	0x0013 00019 (stack_maps.go:57)	MOVQ	"".c+24(SP), DX
	0x0018 00024 (stack_maps.go:54)	CMPQ	DX, AX
	0x001b 00027 (stack_maps.go:54)	JNE	39
	0x001d 00029 (stack_maps.go:55)	LEAQ	1(CX), AX
	0x0021 00033 (stack_maps.go:57)	MOVQ	AX, "".~r3+32(SP)
	0x0026 00038 (stack_maps.go:57)	RET
	0x0027 00039 (stack_maps.go:57)	MOVQ	CX, AX
	0x002a 00042 (stack_maps.go:54)	JMP	33
	0x0000 48 8b 44 24 10 48 8b 4c 24 08 48 39 c8 0f 94 c1  H.D$.H.L$.H9....
	0x0010 0f b6 c9 48 8b 54 24 18 48 39 c2 75 0a 48 8d 41  ...H.T$.H9.u.H.A
	0x0020 01 48 89 44 24 20 c3 48 89 c8 eb f5              .H.D$ .H....
"".func3_argptr3_3 STEXT nosplit size=28 args=0x30 locals=0x0
	0x0000 00000 (stack_maps.go:60)	TEXT	"".func3_argptr3_3(SB), NOSPLIT, $0-48
	0x0000 00000 (stack_maps.go:60)	FUNCDATA	$0, gclocals·26c19b003b4032a46d3e8db29831f3fe(SB)
	0x0000 00000 (stack_maps.go:60)	FUNCDATA	$1, gclocals·33cdeccccebe80329f1fdbee7f5874cb(SB)
	0x0000 00000 (stack_maps.go:61)	MOVQ	$16, "".A+32(SP)
	0x0009 00009 (stack_maps.go:61)	MOVQ	$32, "".B+40(SP)
	0x0012 00018 (stack_maps.go:61)	MOVQ	$64, "".C+48(SP)
	0x001b 00027 (stack_maps.go:63)	RET
	0x0000 48 c7 44 24 20 10 00 00 00 48 c7 44 24 28 20 00  H.D$ ....H.D$( .
	0x0010 00 00 48 c7 44 24 30 40 00 00 00 c3              ..H.D$0@....
"".func4_argptr4_0 STEXT nosplit size=43 args=0x28 locals=0x0
	0x0000 00000 (stack_maps.go:66)	TEXT	"".func4_argptr4_0(SB), NOSPLIT, $0-40
	0x0000 00000 (stack_maps.go:66)	FUNCDATA	$0, gclocals·1796f354e2ee64b72a4c7c668a1a7161(SB)
	0x0000 00000 (stack_maps.go:66)	FUNCDATA	$1, gclocals·33cdeccccebe80329f1fdbee7f5874cb(SB)
	0x0000 00000 (stack_maps.go:66)	MOVQ	"".b+16(SP), AX
	0x0005 00005 (stack_maps.go:66)	MOVQ	"".a+8(SP), CX
	0x000a 00010 (stack_maps.go:68)	CMPQ	AX, CX
	0x000d 00013 (stack_maps.go:68)	SETEQ	AL
	0x0010 00016 (stack_maps.go:74)	MOVBLZX	AL, AX
	0x0013 00019 (stack_maps.go:74)	MOVQ	"".d+32(SP), CX
	0x0018 00024 (stack_maps.go:74)	MOVQ	"".c+24(SP), DX
	0x001d 00029 (stack_maps.go:71)	CMPQ	CX, DX
	0x0020 00032 (stack_maps.go:71)	JNE	37
	0x0022 00034 (stack_maps.go:72)	INCQ	AX
	0x0025 00037 (stack_maps.go:74)	MOVQ	AX, "".~r4+40(SP)
	0x002a 00042 (stack_maps.go:74)	RET
	0x0000 48 8b 44 24 10 48 8b 4c 24 08 48 39 c8 0f 94 c0  H.D$.H.L$.H9....
	0x0010 0f b6 c0 48 8b 4c 24 20 48 8b 54 24 18 48 39 d1  ...H.L$ H.T$.H9.
	0x0020 75 03 48 ff c0 48 89 44 24 28 c3                 u.H..H.D$(.
"".func5_argptr5_0 STEXT nosplit size=47 args=0x30 locals=0x0
	0x0000 00000 (stack_maps.go:77)	TEXT	"".func5_argptr5_0(SB), NOSPLIT, $0-48
	0x0000 00000 (stack_maps.go:77)	FUNCDATA	$0, gclocals·e47c75ed031dcaac5b24e58ca743f6ee(SB)
	0x0000 00000 (stack_maps.go:77)	FUNCDATA	$1, gclocals·33cdeccccebe80329f1fdbee7f5874cb(SB)
	0x0000 00000 (stack_maps.go:77)	MOVQ	"".b+16(SP), AX
	0x0005 00005 (stack_maps.go:77)	MOVQ	"".a+8(SP), CX
	0x000a 00010 (stack_maps.go:79)	CMPQ	AX, CX
	0x000d 00013 (stack_maps.go:79)	JNE	26
	0x000f 00015 (stack_maps.go:79)	MOVL	$1, AX
	0x0014 00020 (stack_maps.go:84)	MOVQ	AX, "".~r5+48(SP)
	0x0019 00025 (stack_maps.go:84)	RET
	0x001a 00026 (stack_maps.go:84)	MOVQ	"".d+32(SP), CX
	0x001f 00031 (stack_maps.go:84)	MOVQ	"".c+24(SP), DX
	0x0024 00036 (stack_maps.go:81)	CMPQ	CX, DX
	0x0027 00039 (stack_maps.go:81)	SETEQ	CL
	0x002a 00042 (stack_maps.go:84)	MOVBLZX	CL, AX
	0x002d 00045 (stack_maps.go:84)	JMP	20
	0x0000 48 8b 44 24 10 48 8b 4c 24 08 48 39 c8 75 0b b8  H.D$.H.L$.H9.u..
	0x0010 01 00 00 00 48 89 44 24 30 c3 48 8b 4c 24 20 48  ....H.D$0.H.L$ H
	0x0020 8b 54 24 18 48 39 d1 0f 94 c1 0f b6 c1 eb e5     .T$.H9.........
"".func5_argptr0_0 STEXT nosplit size=64 args=0x30 locals=0x0
	0x0000 00000 (stack_maps.go:87)	TEXT	"".func5_argptr0_0(SB), NOSPLIT, $0-48
	0x0000 00000 (stack_maps.go:87)	FUNCDATA	$0, gclocals·26c19b003b4032a46d3e8db29831f3fe(SB)
	0x0000 00000 (stack_maps.go:87)	FUNCDATA	$1, gclocals·33cdeccccebe80329f1fdbee7f5874cb(SB)
	0x0000 00000 (stack_maps.go:87)	MOVQ	"".b+16(SP), AX
	0x0005 00005 (stack_maps.go:87)	MOVQ	"".a+8(SP), CX
	0x000a 00010 (stack_maps.go:89)	CMPQ	AX, CX
	0x000d 00013 (stack_maps.go:89)	JNE	26
	0x000f 00015 (stack_maps.go:89)	MOVL	$1, AX
	0x0014 00020 (stack_maps.go:96)	MOVQ	AX, "".~r5+48(SP)
	0x0019 00025 (stack_maps.go:96)	RET
	0x001a 00026 (stack_maps.go:96)	MOVQ	"".d+32(SP), AX
	0x001f 00031 (stack_maps.go:96)	MOVQ	"".c+24(SP), CX
	0x0024 00036 (stack_maps.go:91)	CMPQ	AX, CX
	0x0027 00039 (stack_maps.go:91)	JNE	48
	0x0029 00041 (stack_maps.go:91)	MOVL	$1, AX
	0x002e 00046 (stack_maps.go:92)	JMP	20
	0x0030 00048 (stack_maps.go:92)	MOVQ	"".e+40(SP), DX
	0x0035 00053 (stack_maps.go:93)	CMPQ	DX, CX
	0x0038 00056 (stack_maps.go:93)	SETEQ	CL
	0x003b 00059 (stack_maps.go:96)	MOVBLZX	CL, AX
	0x003e 00062 (stack_maps.go:96)	JMP	20
	0x0000 48 8b 44 24 10 48 8b 4c 24 08 48 39 c8 75 0b b8  H.D$.H.L$.H9.u..
	0x0010 01 00 00 00 48 89 44 24 30 c3 48 8b 44 24 20 48  ....H.D$0.H.D$ H
	0x0020 8b 4c 24 18 48 39 c8 75 07 b8 01 00 00 00 eb e4  .L$.H9.u........
	0x0030 48 8b 54 24 28 48 39 ca 0f 94 c1 0f b6 c1 eb d4  H.T$(H9.........
"".func7_argptr7_0 STEXT nosplit size=86 args=0x40 locals=0x0
	0x0000 00000 (stack_maps.go:99)	TEXT	"".func7_argptr7_0(SB), NOSPLIT, $0-64
	0x0000 00000 (stack_maps.go:99)	FUNCDATA	$0, gclocals·e5f9455b7f339e9e2483020ccff91f2a(SB)
	0x0000 00000 (stack_maps.go:99)	FUNCDATA	$1, gclocals·33cdeccccebe80329f1fdbee7f5874cb(SB)
	0x0000 00000 (stack_maps.go:99)	MOVQ	"".b+16(SP), AX
	0x0005 00005 (stack_maps.go:99)	MOVQ	"".a+8(SP), CX
	0x000a 00010 (stack_maps.go:101)	CMPQ	AX, CX
	0x000d 00013 (stack_maps.go:101)	JNE	26
	0x000f 00015 (stack_maps.go:101)	MOVL	$1, AX
	0x0014 00020 (stack_maps.go:110)	MOVQ	AX, "".~r7+64(SP)
	0x0019 00025 (stack_maps.go:110)	RET
	0x001a 00026 (stack_maps.go:110)	MOVQ	"".d+32(SP), AX
	0x001f 00031 (stack_maps.go:110)	MOVQ	"".c+24(SP), DX
	0x0024 00036 (stack_maps.go:103)	CMPQ	AX, DX
	0x0027 00039 (stack_maps.go:103)	JNE	48
	0x0029 00041 (stack_maps.go:103)	MOVL	$1, AX
	0x002e 00046 (stack_maps.go:104)	JMP	20
	0x0030 00048 (stack_maps.go:104)	MOVQ	"".f+48(SP), AX
	0x0035 00053 (stack_maps.go:104)	MOVQ	"".e+40(SP), DX
	0x003a 00058 (stack_maps.go:105)	CMPQ	AX, DX
	0x003d 00061 (stack_maps.go:105)	JNE	70
	0x003f 00063 (stack_maps.go:105)	MOVL	$1, AX
	0x0044 00068 (stack_maps.go:106)	JMP	20
	0x0046 00070 (stack_maps.go:106)	MOVQ	"".g+56(SP), DX
	0x004b 00075 (stack_maps.go:107)	CMPQ	DX, CX
	0x004e 00078 (stack_maps.go:107)	SETEQ	CL
	0x0051 00081 (stack_maps.go:110)	MOVBLZX	CL, AX
	0x0054 00084 (stack_maps.go:110)	JMP	20
	0x0000 48 8b 44 24 10 48 8b 4c 24 08 48 39 c8 75 0b b8  H.D$.H.L$.H9.u..
	0x0010 01 00 00 00 48 89 44 24 40 c3 48 8b 44 24 20 48  ....H.D$@.H.D$ H
	0x0020 8b 54 24 18 48 39 d0 75 07 b8 01 00 00 00 eb e4  .T$.H9.u........
	0x0030 48 8b 44 24 30 48 8b 54 24 28 48 39 d0 75 07 b8  H.D$0H.T$(H9.u..
	0x0040 01 00 00 00 eb ce 48 8b 54 24 38 48 39 ca 0f 94  ......H.T$8H9...
	0x0050 c1 0f b6 c1 eb be                                ......
"".func7_argptr7_7 STEXT size=574 args=0x70 locals=0x48
	0x0000 00000 (stack_maps.go:113)	TEXT	"".func7_argptr7_7(SB), $72-112
	0x0000 00000 (stack_maps.go:113)	MOVQ	(TLS), CX
	0x0009 00009 (stack_maps.go:113)	CMPQ	SP, 16(CX)
	0x000d 00013 (stack_maps.go:113)	JLS	564
	0x0013 00019 (stack_maps.go:113)	SUBQ	$72, SP
	0x0017 00023 (stack_maps.go:113)	MOVQ	BP, 64(SP)
	0x001c 00028 (stack_maps.go:113)	LEAQ	64(SP), BP
	0x0021 00033 (stack_maps.go:113)	FUNCDATA	$0, gclocals·1ffc4335e650bddd934df7eed5367235(SB)
	0x0021 00033 (stack_maps.go:113)	FUNCDATA	$1, gclocals·b88d212e1dddf05b11066db7e199ff36(SB)
	0x0021 00033 (stack_maps.go:113)	LEAQ	type.*int(SB), AX
	0x0028 00040 (stack_maps.go:113)	MOVQ	AX, (SP)
	0x002c 00044 (stack_maps.go:113)	PCDATA	$0, $0
	0x002c 00044 (stack_maps.go:113)	CALL	runtime.newobject(SB)
	0x0031 00049 (stack_maps.go:113)	MOVQ	8(SP), DI
	0x0036 00054 (stack_maps.go:113)	MOVQ	DI, "".&a+56(SP)
	0x003b 00059 (stack_maps.go:113)	MOVL	runtime.writeBarrier(SB), AX
	0x0041 00065 (stack_maps.go:113)	TESTL	AX, AX
	0x0043 00067 (stack_maps.go:113)	JNE	549
	0x0049 00073 (stack_maps.go:113)	MOVQ	"".a+80(SP), AX
	0x004e 00078 (stack_maps.go:113)	MOVQ	AX, (DI)
	0x0051 00081 (stack_maps.go:113)	LEAQ	type.*int(SB), AX
	0x0058 00088 (stack_maps.go:113)	MOVQ	AX, (SP)
	0x005c 00092 (stack_maps.go:113)	PCDATA	$0, $1
	0x005c 00092 (stack_maps.go:113)	CALL	runtime.newobject(SB)
	0x0061 00097 (stack_maps.go:113)	MOVQ	8(SP), DI
	0x0066 00102 (stack_maps.go:113)	MOVQ	DI, "".&b+48(SP)
	0x006b 00107 (stack_maps.go:113)	MOVL	runtime.writeBarrier(SB), AX
	0x0071 00113 (stack_maps.go:113)	TESTL	AX, AX
	0x0073 00115 (stack_maps.go:113)	JNE	534
	0x0079 00121 (stack_maps.go:113)	MOVQ	"".b+88(SP), AX
	0x007e 00126 (stack_maps.go:113)	MOVQ	AX, (DI)
	0x0081 00129 (stack_maps.go:113)	LEAQ	type.*int(SB), AX
	0x0088 00136 (stack_maps.go:113)	MOVQ	AX, (SP)
	0x008c 00140 (stack_maps.go:113)	PCDATA	$0, $2
	0x008c 00140 (stack_maps.go:113)	CALL	runtime.newobject(SB)
	0x0091 00145 (stack_maps.go:113)	MOVQ	8(SP), DI
	0x0096 00150 (stack_maps.go:113)	MOVQ	DI, "".&c+40(SP)
	0x009b 00155 (stack_maps.go:113)	MOVL	runtime.writeBarrier(SB), AX
	0x00a1 00161 (stack_maps.go:113)	TESTL	AX, AX
	0x00a3 00163 (stack_maps.go:113)	JNE	519
	0x00a9 00169 (stack_maps.go:113)	MOVQ	"".c+96(SP), AX
	0x00ae 00174 (stack_maps.go:113)	MOVQ	AX, (DI)
	0x00b1 00177 (stack_maps.go:113)	LEAQ	type.*int(SB), AX
	0x00b8 00184 (stack_maps.go:113)	MOVQ	AX, (SP)
	0x00bc 00188 (stack_maps.go:113)	PCDATA	$0, $3
	0x00bc 00188 (stack_maps.go:113)	CALL	runtime.newobject(SB)
	0x00c1 00193 (stack_maps.go:113)	MOVQ	8(SP), DI
	0x00c6 00198 (stack_maps.go:113)	MOVQ	DI, "".&d+32(SP)
	0x00cb 00203 (stack_maps.go:113)	MOVL	runtime.writeBarrier(SB), AX
	0x00d1 00209 (stack_maps.go:113)	TESTL	AX, AX
	0x00d3 00211 (stack_maps.go:113)	JNE	504
	0x00d9 00217 (stack_maps.go:113)	MOVQ	"".d+104(SP), AX
	0x00de 00222 (stack_maps.go:113)	MOVQ	AX, (DI)
	0x00e1 00225 (stack_maps.go:113)	LEAQ	type.*int(SB), AX
	0x00e8 00232 (stack_maps.go:113)	MOVQ	AX, (SP)
	0x00ec 00236 (stack_maps.go:113)	PCDATA	$0, $4
	0x00ec 00236 (stack_maps.go:113)	CALL	runtime.newobject(SB)
	0x00f1 00241 (stack_maps.go:113)	MOVL	runtime.writeBarrier(SB), AX
	0x00f7 00247 (stack_maps.go:113)	MOVQ	8(SP), DI
	0x00fc 00252 (stack_maps.go:113)	MOVQ	DI, "".&e+24(SP)
	0x0101 00257 (stack_maps.go:113)	TESTL	AX, AX
	0x0103 00259 (stack_maps.go:113)	JNE	489
	0x0109 00265 (stack_maps.go:113)	MOVQ	"".e+112(SP), AX
	0x010e 00270 (stack_maps.go:113)	MOVQ	AX, (DI)
	0x0111 00273 (stack_maps.go:113)	LEAQ	type.*int(SB), AX
	0x0118 00280 (stack_maps.go:113)	MOVQ	AX, (SP)
	0x011c 00284 (stack_maps.go:113)	PCDATA	$0, $5
	0x011c 00284 (stack_maps.go:113)	CALL	runtime.newobject(SB)
	0x0121 00289 (stack_maps.go:113)	MOVL	runtime.writeBarrier(SB), AX
	0x0127 00295 (stack_maps.go:113)	MOVQ	8(SP), DI
	0x012c 00300 (stack_maps.go:113)	MOVQ	DI, "".&f+16(SP)
	0x0131 00305 (stack_maps.go:113)	TESTL	AX, AX
	0x0133 00307 (stack_maps.go:113)	JNE	474
	0x0139 00313 (stack_maps.go:113)	MOVQ	"".f+120(SP), AX
	0x013e 00318 (stack_maps.go:113)	MOVQ	AX, (DI)
	0x0141 00321 (stack_maps.go:113)	LEAQ	type.*int(SB), AX
	0x0148 00328 (stack_maps.go:113)	MOVQ	AX, (SP)
	0x014c 00332 (stack_maps.go:113)	PCDATA	$0, $6
	0x014c 00332 (stack_maps.go:113)	CALL	runtime.newobject(SB)
	0x0151 00337 (stack_maps.go:113)	MOVL	runtime.writeBarrier(SB), AX
	0x0157 00343 (stack_maps.go:113)	MOVQ	8(SP), DI
	0x015c 00348 (stack_maps.go:113)	TESTL	AX, AX
	0x015e 00350 (stack_maps.go:113)	JNE	459
	0x0160 00352 (stack_maps.go:113)	MOVQ	"".g+128(SP), AX
	0x0168 00360 (stack_maps.go:113)	MOVQ	AX, (DI)
	0x016b 00363 (stack_maps.go:114)	MOVQ	"".&a+56(SP), AX
	0x0170 00368 (stack_maps.go:114)	MOVQ	AX, "".A+136(SP)
	0x0178 00376 (stack_maps.go:114)	MOVQ	"".&b+48(SP), AX
	0x017d 00381 (stack_maps.go:114)	MOVQ	AX, "".B+144(SP)
	0x0185 00389 (stack_maps.go:114)	MOVQ	"".&c+40(SP), AX
	0x018a 00394 (stack_maps.go:114)	MOVQ	AX, "".C+152(SP)
	0x0192 00402 (stack_maps.go:114)	MOVQ	"".&d+32(SP), AX
	0x0197 00407 (stack_maps.go:114)	MOVQ	AX, "".D+160(SP)
	0x019f 00415 (stack_maps.go:114)	MOVQ	"".&e+24(SP), AX
	0x01a4 00420 (stack_maps.go:114)	MOVQ	AX, "".E+168(SP)
	0x01ac 00428 (stack_maps.go:114)	MOVQ	"".&f+16(SP), AX
	0x01b1 00433 (stack_maps.go:114)	MOVQ	AX, "".F+176(SP)
	0x01b9 00441 (stack_maps.go:114)	MOVQ	DI, "".G+184(SP)
	0x01c1 00449 (stack_maps.go:114)	MOVQ	64(SP), BP
	0x01c6 00454 (stack_maps.go:114)	ADDQ	$72, SP
	0x01ca 00458 (stack_maps.go:114)	RET
	0x01cb 00459 (stack_maps.go:114)	MOVQ	"".g+128(SP), AX
	0x01d3 00467 (stack_maps.go:113)	CALL	runtime.gcWriteBarrier(SB)
	0x01d8 00472 (stack_maps.go:113)	JMP	363
	0x01da 00474 (stack_maps.go:113)	MOVQ	"".f+120(SP), AX
	0x01df 00479 (stack_maps.go:113)	CALL	runtime.gcWriteBarrier(SB)
	0x01e4 00484 (stack_maps.go:113)	JMP	321
	0x01e9 00489 (stack_maps.go:113)	MOVQ	"".e+112(SP), AX
	0x01ee 00494 (stack_maps.go:113)	CALL	runtime.gcWriteBarrier(SB)
	0x01f3 00499 (stack_maps.go:113)	JMP	273
	0x01f8 00504 (stack_maps.go:113)	MOVQ	"".d+104(SP), AX
	0x01fd 00509 (stack_maps.go:113)	CALL	runtime.gcWriteBarrier(SB)
	0x0202 00514 (stack_maps.go:113)	JMP	225
	0x0207 00519 (stack_maps.go:113)	MOVQ	"".c+96(SP), AX
	0x020c 00524 (stack_maps.go:113)	CALL	runtime.gcWriteBarrier(SB)
	0x0211 00529 (stack_maps.go:113)	JMP	177
	0x0216 00534 (stack_maps.go:113)	MOVQ	"".b+88(SP), AX
	0x021b 00539 (stack_maps.go:113)	CALL	runtime.gcWriteBarrier(SB)
	0x0220 00544 (stack_maps.go:113)	JMP	129
	0x0225 00549 (stack_maps.go:113)	MOVQ	"".a+80(SP), AX
	0x022a 00554 (stack_maps.go:113)	CALL	runtime.gcWriteBarrier(SB)
	0x022f 00559 (stack_maps.go:113)	JMP	81
	0x0234 00564 (stack_maps.go:113)	NOP
	0x0234 00564 (stack_maps.go:113)	PCDATA	$0, $-1
	0x0234 00564 (stack_maps.go:113)	CALL	runtime.morestack_noctxt(SB)
	0x0239 00569 (stack_maps.go:113)	JMP	0
	0x0000 64 48 8b 0c 25 00 00 00 00 48 3b 61 10 0f 86 21  dH..%....H;a...!
	0x0010 02 00 00 48 83 ec 48 48 89 6c 24 40 48 8d 6c 24  ...H..HH.l$@H.l$
	0x0020 40 48 8d 05 00 00 00 00 48 89 04 24 e8 00 00 00  @H......H..$....
	0x0030 00 48 8b 7c 24 08 48 89 7c 24 38 8b 05 00 00 00  .H.|$.H.|$8.....
	0x0040 00 85 c0 0f 85 dc 01 00 00 48 8b 44 24 50 48 89  .........H.D$PH.
	0x0050 07 48 8d 05 00 00 00 00 48 89 04 24 e8 00 00 00  .H......H..$....
	0x0060 00 48 8b 7c 24 08 48 89 7c 24 30 8b 05 00 00 00  .H.|$.H.|$0.....
	0x0070 00 85 c0 0f 85 9d 01 00 00 48 8b 44 24 58 48 89  .........H.D$XH.
	0x0080 07 48 8d 05 00 00 00 00 48 89 04 24 e8 00 00 00  .H......H..$....
	0x0090 00 48 8b 7c 24 08 48 89 7c 24 28 8b 05 00 00 00  .H.|$.H.|$(.....
	0x00a0 00 85 c0 0f 85 5e 01 00 00 48 8b 44 24 60 48 89  .....^...H.D$`H.
	0x00b0 07 48 8d 05 00 00 00 00 48 89 04 24 e8 00 00 00  .H......H..$....
	0x00c0 00 48 8b 7c 24 08 48 89 7c 24 20 8b 05 00 00 00  .H.|$.H.|$ .....
	0x00d0 00 85 c0 0f 85 1f 01 00 00 48 8b 44 24 68 48 89  .........H.D$hH.
	0x00e0 07 48 8d 05 00 00 00 00 48 89 04 24 e8 00 00 00  .H......H..$....
	0x00f0 00 8b 05 00 00 00 00 48 8b 7c 24 08 48 89 7c 24  .......H.|$.H.|$
	0x0100 18 85 c0 0f 85 e0 00 00 00 48 8b 44 24 70 48 89  .........H.D$pH.
	0x0110 07 48 8d 05 00 00 00 00 48 89 04 24 e8 00 00 00  .H......H..$....
	0x0120 00 8b 05 00 00 00 00 48 8b 7c 24 08 48 89 7c 24  .......H.|$.H.|$
	0x0130 10 85 c0 0f 85 a1 00 00 00 48 8b 44 24 78 48 89  .........H.D$xH.
	0x0140 07 48 8d 05 00 00 00 00 48 89 04 24 e8 00 00 00  .H......H..$....
	0x0150 00 8b 05 00 00 00 00 48 8b 7c 24 08 85 c0 75 6b  .......H.|$...uk
	0x0160 48 8b 84 24 80 00 00 00 48 89 07 48 8b 44 24 38  H..$....H..H.D$8
	0x0170 48 89 84 24 88 00 00 00 48 8b 44 24 30 48 89 84  H..$....H.D$0H..
	0x0180 24 90 00 00 00 48 8b 44 24 28 48 89 84 24 98 00  $....H.D$(H..$..
	0x0190 00 00 48 8b 44 24 20 48 89 84 24 a0 00 00 00 48  ..H.D$ H..$....H
	0x01a0 8b 44 24 18 48 89 84 24 a8 00 00 00 48 8b 44 24  .D$.H..$....H.D$
	0x01b0 10 48 89 84 24 b0 00 00 00 48 89 bc 24 b8 00 00  .H..$....H..$...
	0x01c0 00 48 8b 6c 24 40 48 83 c4 48 c3 48 8b 84 24 80  .H.l$@H..H.H..$.
	0x01d0 00 00 00 e8 00 00 00 00 eb 91 48 8b 44 24 78 e8  ..........H.D$x.
	0x01e0 00 00 00 00 e9 58 ff ff ff 48 8b 44 24 70 e8 00  .....X...H.D$p..
	0x01f0 00 00 00 e9 19 ff ff ff 48 8b 44 24 68 e8 00 00  ........H.D$h...
	0x0200 00 00 e9 da fe ff ff 48 8b 44 24 60 e8 00 00 00  .......H.D$`....
	0x0210 00 e9 9b fe ff ff 48 8b 44 24 58 e8 00 00 00 00  ......H.D$X.....
	0x0220 e9 5c fe ff ff 48 8b 44 24 50 e8 00 00 00 00 e9  .\...H.D$P......
	0x0230 1d fe ff ff e8 00 00 00 00 e9 c2 fd ff ff        ..............
	rel 5+4 t=16 TLS+0
	rel 36+4 t=15 type.*int+0
	rel 45+4 t=8 runtime.newobject+0
	rel 61+4 t=15 runtime.writeBarrier+0
	rel 84+4 t=15 type.*int+0
	rel 93+4 t=8 runtime.newobject+0
	rel 109+4 t=15 runtime.writeBarrier+0
	rel 132+4 t=15 type.*int+0
	rel 141+4 t=8 runtime.newobject+0
	rel 157+4 t=15 runtime.writeBarrier+0
	rel 180+4 t=15 type.*int+0
	rel 189+4 t=8 runtime.newobject+0
	rel 205+4 t=15 runtime.writeBarrier+0
	rel 228+4 t=15 type.*int+0
	rel 237+4 t=8 runtime.newobject+0
	rel 243+4 t=15 runtime.writeBarrier+0
	rel 276+4 t=15 type.*int+0
	rel 285+4 t=8 runtime.newobject+0
	rel 291+4 t=15 runtime.writeBarrier+0
	rel 324+4 t=15 type.*int+0
	rel 333+4 t=8 runtime.newobject+0
	rel 339+4 t=15 runtime.writeBarrier+0
	rel 468+4 t=8 runtime.gcWriteBarrier+0
	rel 480+4 t=8 runtime.gcWriteBarrier+0
	rel 495+4 t=8 runtime.gcWriteBarrier+0
	rel 510+4 t=8 runtime.gcWriteBarrier+0
	rel 525+4 t=8 runtime.gcWriteBarrier+0
	rel 540+4 t=8 runtime.gcWriteBarrier+0
	rel 555+4 t=8 runtime.gcWriteBarrier+0
	rel 565+4 t=8 runtime.morestack_noctxt+0
"".func8_argptr8_0 STEXT nosplit size=91 args=0x48 locals=0x0
	0x0000 00000 (stack_maps.go:117)	TEXT	"".func8_argptr8_0(SB), NOSPLIT, $0-72
	0x0000 00000 (stack_maps.go:117)	FUNCDATA	$0, gclocals·24ab8eb88756bfa8a723f13ec05c8565(SB)
	0x0000 00000 (stack_maps.go:117)	FUNCDATA	$1, gclocals·33cdeccccebe80329f1fdbee7f5874cb(SB)
	0x0000 00000 (stack_maps.go:117)	MOVQ	"".b+16(SP), AX
	0x0005 00005 (stack_maps.go:117)	MOVQ	"".a+8(SP), CX
	0x000a 00010 (stack_maps.go:119)	CMPQ	AX, CX
	0x000d 00013 (stack_maps.go:119)	JNE	26
	0x000f 00015 (stack_maps.go:119)	MOVL	$1, AX
	0x0014 00020 (stack_maps.go:128)	MOVQ	AX, "".~r8+72(SP)
	0x0019 00025 (stack_maps.go:128)	RET
	0x001a 00026 (stack_maps.go:128)	MOVQ	"".d+32(SP), AX
	0x001f 00031 (stack_maps.go:128)	MOVQ	"".c+24(SP), CX
	0x0024 00036 (stack_maps.go:121)	CMPQ	AX, CX
	0x0027 00039 (stack_maps.go:121)	JNE	48
	0x0029 00041 (stack_maps.go:121)	MOVL	$1, AX
	0x002e 00046 (stack_maps.go:122)	JMP	20
	0x0030 00048 (stack_maps.go:122)	MOVQ	"".f+48(SP), AX
	0x0035 00053 (stack_maps.go:122)	MOVQ	"".e+40(SP), CX
	0x003a 00058 (stack_maps.go:123)	CMPQ	AX, CX
	0x003d 00061 (stack_maps.go:123)	JNE	70
	0x003f 00063 (stack_maps.go:123)	MOVL	$1, AX
	0x0044 00068 (stack_maps.go:124)	JMP	20
	0x0046 00070 (stack_maps.go:124)	MOVQ	"".h+64(SP), CX
	0x004b 00075 (stack_maps.go:124)	MOVQ	"".g+56(SP), DX
	0x0050 00080 (stack_maps.go:125)	CMPQ	CX, DX
	0x0053 00083 (stack_maps.go:125)	SETEQ	CL
	0x0056 00086 (stack_maps.go:128)	MOVBLZX	CL, AX
	0x0059 00089 (stack_maps.go:128)	JMP	20
	0x0000 48 8b 44 24 10 48 8b 4c 24 08 48 39 c8 75 0b b8  H.D$.H.L$.H9.u..
	0x0010 01 00 00 00 48 89 44 24 48 c3 48 8b 44 24 20 48  ....H.D$H.H.D$ H
	0x0020 8b 4c 24 18 48 39 c8 75 07 b8 01 00 00 00 eb e4  .L$.H9.u........
	0x0030 48 8b 44 24 30 48 8b 4c 24 28 48 39 c8 75 07 b8  H.D$0H.L$(H9.u..
	0x0040 01 00 00 00 eb ce 48 8b 4c 24 40 48 8b 54 24 38  ......H.L$@H.T$8
	0x0050 48 39 d1 0f 94 c1 0f b6 c1 eb b9                 H9.........
"".func31_argptr31_0 STEXT nosplit size=431 args=0x100 locals=0x0
	0x0000 00000 (stack_maps.go:131)	TEXT	"".func31_argptr31_0(SB), NOSPLIT, $0-256
	0x0000 00000 (stack_maps.go:131)	FUNCDATA	$0, gclocals·18eb108dd69ac8aded0458079b4a39ed(SB)
	0x0000 00000 (stack_maps.go:131)	FUNCDATA	$1, gclocals·33cdeccccebe80329f1fdbee7f5874cb(SB)
	0x0000 00000 (stack_maps.go:131)	MOVQ	"".b+16(SP), AX
	0x0005 00005 (stack_maps.go:131)	MOVQ	"".a+8(SP), CX
	0x000a 00010 (stack_maps.go:133)	CMPQ	AX, CX
	0x000d 00013 (stack_maps.go:133)	JNE	29
	0x000f 00015 (stack_maps.go:133)	MOVL	$1, AX
	0x0014 00020 (stack_maps.go:166)	MOVQ	AX, "".~r31+256(SP)
	0x001c 00028 (stack_maps.go:166)	RET
	0x001d 00029 (stack_maps.go:166)	MOVQ	"".d+32(SP), AX
	0x0022 00034 (stack_maps.go:166)	MOVQ	"".c+24(SP), DX
	0x0027 00039 (stack_maps.go:135)	CMPQ	AX, DX
	0x002a 00042 (stack_maps.go:135)	JNE	51
	0x002c 00044 (stack_maps.go:135)	MOVL	$1, AX
	0x0031 00049 (stack_maps.go:136)	JMP	20
	0x0033 00051 (stack_maps.go:136)	MOVQ	"".f+48(SP), AX
	0x0038 00056 (stack_maps.go:136)	MOVQ	"".e+40(SP), DX
	0x003d 00061 (stack_maps.go:137)	CMPQ	AX, DX
	0x0040 00064 (stack_maps.go:137)	JNE	73
	0x0042 00066 (stack_maps.go:137)	MOVL	$1, AX
	0x0047 00071 (stack_maps.go:138)	JMP	20
	0x0049 00073 (stack_maps.go:138)	MOVQ	"".h+64(SP), AX
	0x004e 00078 (stack_maps.go:138)	MOVQ	"".g+56(SP), DX
	0x0053 00083 (stack_maps.go:139)	CMPQ	AX, DX
	0x0056 00086 (stack_maps.go:139)	JNE	95
	0x0058 00088 (stack_maps.go:139)	MOVL	$1, AX
	0x005d 00093 (stack_maps.go:140)	JMP	20
	0x005f 00095 (stack_maps.go:140)	MOVQ	"".j+80(SP), AX
	0x0064 00100 (stack_maps.go:140)	MOVQ	"".i+72(SP), DX
	0x0069 00105 (stack_maps.go:141)	CMPQ	AX, DX
	0x006c 00108 (stack_maps.go:141)	JNE	117
	0x006e 00110 (stack_maps.go:141)	MOVL	$1, AX
	0x0073 00115 (stack_maps.go:142)	JMP	20
	0x0075 00117 (stack_maps.go:142)	MOVQ	"".l+96(SP), AX
	0x007a 00122 (stack_maps.go:142)	MOVQ	"".k+88(SP), DX
	0x007f 00127 (stack_maps.go:143)	CMPQ	AX, DX
	0x0082 00130 (stack_maps.go:143)	JNE	139
	0x0084 00132 (stack_maps.go:143)	MOVL	$1, AX
	0x0089 00137 (stack_maps.go:144)	JMP	20
	0x008b 00139 (stack_maps.go:144)	MOVQ	"".n+112(SP), AX
	0x0090 00144 (stack_maps.go:144)	MOVQ	"".m+104(SP), DX
	0x0095 00149 (stack_maps.go:145)	CMPQ	AX, DX
	0x0098 00152 (stack_maps.go:145)	JNE	164
	0x009a 00154 (stack_maps.go:145)	MOVL	$1, AX
	0x009f 00159 (stack_maps.go:146)	JMP	20
	0x00a4 00164 (stack_maps.go:146)	MOVQ	"".p+128(SP), AX
	0x00ac 00172 (stack_maps.go:146)	MOVQ	"".o+120(SP), DX
	0x00b1 00177 (stack_maps.go:147)	CMPQ	AX, DX
	0x00b4 00180 (stack_maps.go:147)	JNE	192
	0x00b6 00182 (stack_maps.go:147)	MOVL	$1, AX
	0x00bb 00187 (stack_maps.go:148)	JMP	20
	0x00c0 00192 (stack_maps.go:148)	MOVQ	"".r+144(SP), AX
	0x00c8 00200 (stack_maps.go:148)	MOVQ	"".q+136(SP), DX
	0x00d0 00208 (stack_maps.go:149)	CMPQ	AX, DX
	0x00d3 00211 (stack_maps.go:149)	JNE	223
	0x00d5 00213 (stack_maps.go:149)	MOVL	$1, AX
	0x00da 00218 (stack_maps.go:150)	JMP	20
	0x00df 00223 (stack_maps.go:150)	MOVQ	"".t+160(SP), AX
	0x00e7 00231 (stack_maps.go:150)	MOVQ	"".s+152(SP), DX
	0x00ef 00239 (stack_maps.go:151)	CMPQ	AX, DX
	0x00f2 00242 (stack_maps.go:151)	JNE	254
	0x00f4 00244 (stack_maps.go:151)	MOVL	$1, AX
	0x00f9 00249 (stack_maps.go:152)	JMP	20
	0x00fe 00254 (stack_maps.go:152)	MOVQ	"".v+176(SP), AX
	0x0106 00262 (stack_maps.go:152)	MOVQ	"".u+168(SP), DX
	0x010e 00270 (stack_maps.go:153)	CMPQ	AX, DX
	0x0111 00273 (stack_maps.go:153)	JNE	285
	0x0113 00275 (stack_maps.go:153)	MOVL	$1, AX
	0x0118 00280 (stack_maps.go:154)	JMP	20
	0x011d 00285 (stack_maps.go:154)	MOVQ	"".x+192(SP), AX
	0x0125 00293 (stack_maps.go:154)	MOVQ	"".w+184(SP), DX
	0x012d 00301 (stack_maps.go:155)	CMPQ	AX, DX
	0x0130 00304 (stack_maps.go:155)	JNE	316
	0x0132 00306 (stack_maps.go:155)	MOVL	$1, AX
	0x0137 00311 (stack_maps.go:156)	JMP	20
	0x013c 00316 (stack_maps.go:156)	MOVQ	"".z+208(SP), AX
	0x0144 00324 (stack_maps.go:156)	MOVQ	"".y+200(SP), DX
	0x014c 00332 (stack_maps.go:157)	CMPQ	AX, DX
	0x014f 00335 (stack_maps.go:157)	JNE	347
	0x0151 00337 (stack_maps.go:157)	MOVL	$1, AX
	0x0156 00342 (stack_maps.go:158)	JMP	20
	0x015b 00347 (stack_maps.go:158)	MOVQ	"".ab+224(SP), AX
	0x0163 00355 (stack_maps.go:158)	MOVQ	"".aa+216(SP), DX
	0x016b 00363 (stack_maps.go:159)	CMPQ	AX, DX
	0x016e 00366 (stack_maps.go:159)	JNE	378
	0x0170 00368 (stack_maps.go:159)	MOVL	$1, AX
	0x0175 00373 (stack_maps.go:160)	JMP	20
	0x017a 00378 (stack_maps.go:160)	MOVQ	"".ad+240(SP), AX
	0x0182 00386 (stack_maps.go:160)	MOVQ	"".ac+232(SP), DX
	0x018a 00394 (stack_maps.go:161)	CMPQ	AX, DX
	0x018d 00397 (stack_maps.go:161)	JNE	409
	0x018f 00399 (stack_maps.go:161)	MOVL	$1, AX
	0x0194 00404 (stack_maps.go:162)	JMP	20
	0x0199 00409 (stack_maps.go:162)	MOVQ	"".ae+248(SP), DX
	0x01a1 00417 (stack_maps.go:163)	CMPQ	DX, CX
	0x01a4 00420 (stack_maps.go:163)	SETEQ	CL
	0x01a7 00423 (stack_maps.go:166)	MOVBLZX	CL, AX
	0x01aa 00426 (stack_maps.go:166)	JMP	20
	0x0000 48 8b 44 24 10 48 8b 4c 24 08 48 39 c8 75 0e b8  H.D$.H.L$.H9.u..
	0x0010 01 00 00 00 48 89 84 24 00 01 00 00 c3 48 8b 44  ....H..$.....H.D
	0x0020 24 20 48 8b 54 24 18 48 39 d0 75 07 b8 01 00 00  $ H.T$.H9.u.....
	0x0030 00 eb e1 48 8b 44 24 30 48 8b 54 24 28 48 39 d0  ...H.D$0H.T$(H9.
	0x0040 75 07 b8 01 00 00 00 eb cb 48 8b 44 24 40 48 8b  u........H.D$@H.
	0x0050 54 24 38 48 39 d0 75 07 b8 01 00 00 00 eb b5 48  T$8H9.u........H
	0x0060 8b 44 24 50 48 8b 54 24 48 48 39 d0 75 07 b8 01  .D$PH.T$HH9.u...
	0x0070 00 00 00 eb 9f 48 8b 44 24 60 48 8b 54 24 58 48  .....H.D$`H.T$XH
	0x0080 39 d0 75 07 b8 01 00 00 00 eb 89 48 8b 44 24 70  9.u........H.D$p
	0x0090 48 8b 54 24 68 48 39 d0 75 0a b8 01 00 00 00 e9  H.T$hH9.u.......
	0x00a0 70 ff ff ff 48 8b 84 24 80 00 00 00 48 8b 54 24  p...H..$....H.T$
	0x00b0 78 48 39 d0 75 0a b8 01 00 00 00 e9 54 ff ff ff  xH9.u.......T...
	0x00c0 48 8b 84 24 90 00 00 00 48 8b 94 24 88 00 00 00  H..$....H..$....
	0x00d0 48 39 d0 75 0a b8 01 00 00 00 e9 35 ff ff ff 48  H9.u.......5...H
	0x00e0 8b 84 24 a0 00 00 00 48 8b 94 24 98 00 00 00 48  ..$....H..$....H
	0x00f0 39 d0 75 0a b8 01 00 00 00 e9 16 ff ff ff 48 8b  9.u...........H.
	0x0100 84 24 b0 00 00 00 48 8b 94 24 a8 00 00 00 48 39  .$....H..$....H9
	0x0110 d0 75 0a b8 01 00 00 00 e9 f7 fe ff ff 48 8b 84  .u...........H..
	0x0120 24 c0 00 00 00 48 8b 94 24 b8 00 00 00 48 39 d0  $....H..$....H9.
	0x0130 75 0a b8 01 00 00 00 e9 d8 fe ff ff 48 8b 84 24  u...........H..$
	0x0140 d0 00 00 00 48 8b 94 24 c8 00 00 00 48 39 d0 75  ....H..$....H9.u
	0x0150 0a b8 01 00 00 00 e9 b9 fe ff ff 48 8b 84 24 e0  ...........H..$.
	0x0160 00 00 00 48 8b 94 24 d8 00 00 00 48 39 d0 75 0a  ...H..$....H9.u.
	0x0170 b8 01 00 00 00 e9 9a fe ff ff 48 8b 84 24 f0 00  ..........H..$..
	0x0180 00 00 48 8b 94 24 e8 00 00 00 48 39 d0 75 0a b8  ..H..$....H9.u..
	0x0190 01 00 00 00 e9 7b fe ff ff 48 8b 94 24 f8 00 00  .....{...H..$...
	0x01a0 00 48 39 ca 0f 94 c1 0f b6 c1 e9 65 fe ff ff     .H9........e...
"".func32_argptr32_0 STEXT nosplit size=439 args=0x108 locals=0x0
	0x0000 00000 (stack_maps.go:169)	TEXT	"".func32_argptr32_0(SB), NOSPLIT, $0-264
	0x0000 00000 (stack_maps.go:169)	FUNCDATA	$0, gclocals·431cd661679bfc6da2d30d11c832c73c(SB)
	0x0000 00000 (stack_maps.go:169)	FUNCDATA	$1, gclocals·33cdeccccebe80329f1fdbee7f5874cb(SB)
	0x0000 00000 (stack_maps.go:169)	MOVQ	"".b+16(SP), AX
	0x0005 00005 (stack_maps.go:169)	MOVQ	"".a+8(SP), CX
	0x000a 00010 (stack_maps.go:171)	CMPQ	AX, CX
	0x000d 00013 (stack_maps.go:171)	JNE	29
	0x000f 00015 (stack_maps.go:171)	MOVL	$1, AX
	0x0014 00020 (stack_maps.go:204)	MOVQ	AX, "".~r32+264(SP)
	0x001c 00028 (stack_maps.go:204)	RET
	0x001d 00029 (stack_maps.go:204)	MOVQ	"".d+32(SP), AX
	0x0022 00034 (stack_maps.go:204)	MOVQ	"".c+24(SP), CX
	0x0027 00039 (stack_maps.go:173)	CMPQ	AX, CX
	0x002a 00042 (stack_maps.go:173)	JNE	51
	0x002c 00044 (stack_maps.go:173)	MOVL	$1, AX
	0x0031 00049 (stack_maps.go:174)	JMP	20
	0x0033 00051 (stack_maps.go:174)	MOVQ	"".f+48(SP), AX
	0x0038 00056 (stack_maps.go:174)	MOVQ	"".e+40(SP), CX
	0x003d 00061 (stack_maps.go:175)	CMPQ	AX, CX
	0x0040 00064 (stack_maps.go:175)	JNE	73
	0x0042 00066 (stack_maps.go:175)	MOVL	$1, AX
	0x0047 00071 (stack_maps.go:176)	JMP	20
	0x0049 00073 (stack_maps.go:176)	MOVQ	"".h+64(SP), AX
	0x004e 00078 (stack_maps.go:176)	MOVQ	"".g+56(SP), CX
	0x0053 00083 (stack_maps.go:177)	CMPQ	AX, CX
	0x0056 00086 (stack_maps.go:177)	JNE	95
	0x0058 00088 (stack_maps.go:177)	MOVL	$1, AX
	0x005d 00093 (stack_maps.go:178)	JMP	20
	0x005f 00095 (stack_maps.go:178)	MOVQ	"".j+80(SP), AX
	0x0064 00100 (stack_maps.go:178)	MOVQ	"".i+72(SP), CX
	0x0069 00105 (stack_maps.go:179)	CMPQ	AX, CX
	0x006c 00108 (stack_maps.go:179)	JNE	117
	0x006e 00110 (stack_maps.go:179)	MOVL	$1, AX
	0x0073 00115 (stack_maps.go:180)	JMP	20
	0x0075 00117 (stack_maps.go:180)	MOVQ	"".l+96(SP), AX
	0x007a 00122 (stack_maps.go:180)	MOVQ	"".k+88(SP), CX
	0x007f 00127 (stack_maps.go:181)	CMPQ	AX, CX
	0x0082 00130 (stack_maps.go:181)	JNE	139
	0x0084 00132 (stack_maps.go:181)	MOVL	$1, AX
	0x0089 00137 (stack_maps.go:182)	JMP	20
	0x008b 00139 (stack_maps.go:182)	MOVQ	"".n+112(SP), AX
	0x0090 00144 (stack_maps.go:182)	MOVQ	"".m+104(SP), CX
	0x0095 00149 (stack_maps.go:183)	CMPQ	AX, CX
	0x0098 00152 (stack_maps.go:183)	JNE	164
	0x009a 00154 (stack_maps.go:183)	MOVL	$1, AX
	0x009f 00159 (stack_maps.go:184)	JMP	20
	0x00a4 00164 (stack_maps.go:184)	MOVQ	"".p+128(SP), AX
	0x00ac 00172 (stack_maps.go:184)	MOVQ	"".o+120(SP), CX
	0x00b1 00177 (stack_maps.go:185)	CMPQ	AX, CX
	0x00b4 00180 (stack_maps.go:185)	JNE	192
	0x00b6 00182 (stack_maps.go:185)	MOVL	$1, AX
	0x00bb 00187 (stack_maps.go:186)	JMP	20
	0x00c0 00192 (stack_maps.go:186)	MOVQ	"".r+144(SP), AX
	0x00c8 00200 (stack_maps.go:186)	MOVQ	"".q+136(SP), CX
	0x00d0 00208 (stack_maps.go:187)	CMPQ	AX, CX
	0x00d3 00211 (stack_maps.go:187)	JNE	223
	0x00d5 00213 (stack_maps.go:187)	MOVL	$1, AX
	0x00da 00218 (stack_maps.go:188)	JMP	20
	0x00df 00223 (stack_maps.go:188)	MOVQ	"".t+160(SP), AX
	0x00e7 00231 (stack_maps.go:188)	MOVQ	"".s+152(SP), CX
	0x00ef 00239 (stack_maps.go:189)	CMPQ	AX, CX
	0x00f2 00242 (stack_maps.go:189)	JNE	254
	0x00f4 00244 (stack_maps.go:189)	MOVL	$1, AX
	0x00f9 00249 (stack_maps.go:190)	JMP	20
	0x00fe 00254 (stack_maps.go:190)	MOVQ	"".v+176(SP), AX
	0x0106 00262 (stack_maps.go:190)	MOVQ	"".u+168(SP), CX
	0x010e 00270 (stack_maps.go:191)	CMPQ	AX, CX
	0x0111 00273 (stack_maps.go:191)	JNE	285
	0x0113 00275 (stack_maps.go:191)	MOVL	$1, AX
	0x0118 00280 (stack_maps.go:192)	JMP	20
	0x011d 00285 (stack_maps.go:192)	MOVQ	"".x+192(SP), AX
	0x0125 00293 (stack_maps.go:192)	MOVQ	"".w+184(SP), CX
	0x012d 00301 (stack_maps.go:193)	CMPQ	AX, CX
	0x0130 00304 (stack_maps.go:193)	JNE	316
	0x0132 00306 (stack_maps.go:193)	MOVL	$1, AX
	0x0137 00311 (stack_maps.go:194)	JMP	20
	0x013c 00316 (stack_maps.go:194)	MOVQ	"".z+208(SP), AX
	0x0144 00324 (stack_maps.go:194)	MOVQ	"".y+200(SP), CX
	0x014c 00332 (stack_maps.go:195)	CMPQ	AX, CX
	0x014f 00335 (stack_maps.go:195)	JNE	347
	0x0151 00337 (stack_maps.go:195)	MOVL	$1, AX
	0x0156 00342 (stack_maps.go:196)	JMP	20
	0x015b 00347 (stack_maps.go:196)	MOVQ	"".ab+224(SP), AX
	0x0163 00355 (stack_maps.go:196)	MOVQ	"".aa+216(SP), CX
	0x016b 00363 (stack_maps.go:197)	CMPQ	AX, CX
	0x016e 00366 (stack_maps.go:197)	JNE	378
	0x0170 00368 (stack_maps.go:197)	MOVL	$1, AX
	0x0175 00373 (stack_maps.go:198)	JMP	20
	0x017a 00378 (stack_maps.go:198)	MOVQ	"".ad+240(SP), AX
	0x0182 00386 (stack_maps.go:198)	MOVQ	"".ac+232(SP), CX
	0x018a 00394 (stack_maps.go:199)	CMPQ	AX, CX
	0x018d 00397 (stack_maps.go:199)	JNE	409
	0x018f 00399 (stack_maps.go:199)	MOVL	$1, AX
	0x0194 00404 (stack_maps.go:200)	JMP	20
	0x0199 00409 (stack_maps.go:200)	MOVQ	"".af+256(SP), CX
	0x01a1 00417 (stack_maps.go:200)	MOVQ	"".ae+248(SP), DX
	0x01a9 00425 (stack_maps.go:201)	CMPQ	CX, DX
	0x01ac 00428 (stack_maps.go:201)	SETEQ	CL
	0x01af 00431 (stack_maps.go:204)	MOVBLZX	CL, AX
	0x01b2 00434 (stack_maps.go:204)	JMP	20
	0x0000 48 8b 44 24 10 48 8b 4c 24 08 48 39 c8 75 0e b8  H.D$.H.L$.H9.u..
	0x0010 01 00 00 00 48 89 84 24 08 01 00 00 c3 48 8b 44  ....H..$.....H.D
	0x0020 24 20 48 8b 4c 24 18 48 39 c8 75 07 b8 01 00 00  $ H.L$.H9.u.....
	0x0030 00 eb e1 48 8b 44 24 30 48 8b 4c 24 28 48 39 c8  ...H.D$0H.L$(H9.
	0x0040 75 07 b8 01 00 00 00 eb cb 48 8b 44 24 40 48 8b  u........H.D$@H.
	0x0050 4c 24 38 48 39 c8 75 07 b8 01 00 00 00 eb b5 48  L$8H9.u........H
	0x0060 8b 44 24 50 48 8b 4c 24 48 48 39 c8 75 07 b8 01  .D$PH.L$HH9.u...
	0x0070 00 00 00 eb 9f 48 8b 44 24 60 48 8b 4c 24 58 48  .....H.D$`H.L$XH
	0x0080 39 c8 75 07 b8 01 00 00 00 eb 89 48 8b 44 24 70  9.u........H.D$p
	0x0090 48 8b 4c 24 68 48 39 c8 75 0a b8 01 00 00 00 e9  H.L$hH9.u.......
	0x00a0 70 ff ff ff 48 8b 84 24 80 00 00 00 48 8b 4c 24  p...H..$....H.L$
	0x00b0 78 48 39 c8 75 0a b8 01 00 00 00 e9 54 ff ff ff  xH9.u.......T...
	0x00c0 48 8b 84 24 90 00 00 00 48 8b 8c 24 88 00 00 00  H..$....H..$....
	0x00d0 48 39 c8 75 0a b8 01 00 00 00 e9 35 ff ff ff 48  H9.u.......5...H
	0x00e0 8b 84 24 a0 00 00 00 48 8b 8c 24 98 00 00 00 48  ..$....H..$....H
	0x00f0 39 c8 75 0a b8 01 00 00 00 e9 16 ff ff ff 48 8b  9.u...........H.
	0x0100 84 24 b0 00 00 00 48 8b 8c 24 a8 00 00 00 48 39  .$....H..$....H9
	0x0110 c8 75 0a b8 01 00 00 00 e9 f7 fe ff ff 48 8b 84  .u...........H..
	0x0120 24 c0 00 00 00 48 8b 8c 24 b8 00 00 00 48 39 c8  $....H..$....H9.
	0x0130 75 0a b8 01 00 00 00 e9 d8 fe ff ff 48 8b 84 24  u...........H..$
	0x0140 d0 00 00 00 48 8b 8c 24 c8 00 00 00 48 39 c8 75  ....H..$....H9.u
	0x0150 0a b8 01 00 00 00 e9 b9 fe ff ff 48 8b 84 24 e0  ...........H..$.
	0x0160 00 00 00 48 8b 8c 24 d8 00 00 00 48 39 c8 75 0a  ...H..$....H9.u.
	0x0170 b8 01 00 00 00 e9 9a fe ff ff 48 8b 84 24 f0 00  ..........H..$..
	0x0180 00 00 48 8b 8c 24 e8 00 00 00 48 39 c8 75 0a b8  ..H..$....H9.u..
	0x0190 01 00 00 00 e9 7b fe ff ff 48 8b 8c 24 00 01 00  .....{...H..$...
	0x01a0 00 48 8b 94 24 f8 00 00 00 48 39 d1 0f 94 c1 0f  .H..$....H9.....
	0x01b0 b6 c1 e9 5d fe ff ff                             ...]...
"".func1_argptr0_1 STEXT nosplit size=13 args=0x10 locals=0x0
	0x0000 00000 (stack_maps.go:207)	TEXT	"".func1_argptr0_1(SB), NOSPLIT, $0-16
	0x0000 00000 (stack_maps.go:207)	FUNCDATA	$0, gclocals·f207267fbf96a0178e8758c6e3e0ce28(SB)
	0x0000 00000 (stack_maps.go:207)	FUNCDATA	$1, gclocals·33cdeccccebe80329f1fdbee7f5874cb(SB)
	0x0000 00000 (stack_maps.go:208)	MOVQ	""._0(SB), AX
	0x0007 00007 (stack_maps.go:208)	MOVQ	AX, "".~r1+16(SP)
	0x000c 00012 (stack_maps.go:208)	RET
	0x0000 48 8b 05 00 00 00 00 48 89 44 24 10 c3           H......H.D$..
	rel 3+4 t=15 ""._0+0
go.info."".pointer0_0 SDWARFINFO size=64
	0x0000 02 22 22 2e 70 6f 69 6e 74 65 72 30 5f 30 00 00  ."".pointer0_0..
	0x0010 00 00 00 00 00 00 00 00 00 00 00 00 00 00 00 01  ................
	0x0020 9c 00 00 00 00 01 0e 61 00 00 19 00 00 00 00 01  .......a........
	0x0030 9c 0e 7e 72 31 00 01 19 00 00 00 00 02 91 08 00  ..~r1...........
	rel 15+8 t=1 "".pointer0_0+0
	rel 23+8 t=1 "".pointer0_0+11
	rel 33+4 t=29 gofile../home/max/my/gomacro/jit/stack_maps/stack_maps.go+0
	rel 43+4 t=28 go.info.int+0
	rel 56+4 t=28 go.info.int+0
go.range."".pointer0_0 SDWARFRANGE size=0
go.info."".func1_argptr1_0 SDWARFINFO size=69
	0x0000 02 22 22 2e 66 75 6e 63 31 5f 61 72 67 70 74 72  ."".func1_argptr
	0x0010 31 5f 30 00 00 00 00 00 00 00 00 00 00 00 00 00  1_0.............
	0x0020 00 00 00 00 01 9c 00 00 00 00 01 0e 61 00 00 1d  ............a...
	0x0030 00 00 00 00 01 9c 0e 7e 72 31 00 01 1d 00 00 00  .......~r1......
	0x0040 00 02 91 08 00                                   .....
	rel 20+8 t=1 "".func1_argptr1_0+0
	rel 28+8 t=1 "".func1_argptr1_0+37
	rel 38+4 t=29 gofile../home/max/my/gomacro/jit/stack_maps/stack_maps.go+0
	rel 48+4 t=28 go.info.*int+0
	rel 61+4 t=28 go.info.int+0
go.range."".func1_argptr1_0 SDWARFRANGE size=0
go.info."".func2_argptr2_0 SDWARFINFO size=81
	0x0000 02 22 22 2e 66 75 6e 63 32 5f 61 72 67 70 74 72  ."".func2_argptr
	0x0010 32 5f 30 00 00 00 00 00 00 00 00 00 00 00 00 00  2_0.............
	0x0020 00 00 00 00 01 9c 00 00 00 00 01 0e 61 00 00 25  ............a..%
	0x0030 00 00 00 00 01 9c 0e 62 00 00 25 00 00 00 00 02  .......b..%.....
	0x0040 91 08 0e 7e 72 32 00 01 25 00 00 00 00 02 91 10  ...~r2..%.......
	0x0050 00                                               .
	rel 20+8 t=1 "".func2_argptr2_0+0
	rel 28+8 t=1 "".func2_argptr2_0+25
	rel 38+4 t=29 gofile../home/max/my/gomacro/jit/stack_maps/stack_maps.go+0
	rel 48+4 t=28 go.info.*int+0
	rel 59+4 t=28 go.info.*int+0
	rel 73+4 t=28 go.info.int+0
go.range."".func2_argptr2_0 SDWARFRANGE size=0
go.info."".func2_argptr2_2 SDWARFINFO size=103
	0x0000 02 22 22 2e 66 75 6e 63 32 5f 61 72 67 70 74 72  ."".func2_argptr
	0x0010 32 5f 32 00 00 00 00 00 00 00 00 00 00 00 00 00  2_2.............
	0x0020 00 00 00 00 01 9c 00 00 00 00 01 09 26 61 00 2d  ............&a.-
	0x0030 00 00 00 00 02 91 68 0e 41 00 01 2d 00 00 00 00  ......h.A..-....
	0x0040 02 91 10 0e 42 00 01 2d 00 00 00 00 02 91 18 0e  ....B..-........
	0x0050 61 00 00 2d 00 00 00 00 01 9c 0e 62 00 00 2d 00  a..-.......b..-.
	0x0060 00 00 00 02 91 08 00                             .......
	rel 20+8 t=1 "".func2_argptr2_2+0
	rel 28+8 t=1 "".func2_argptr2_2+175
	rel 38+4 t=29 gofile../home/max/my/gomacro/jit/stack_maps/stack_maps.go+0
	rel 48+4 t=28 go.info.**int+0
	rel 60+4 t=28 go.info.**int+0
	rel 72+4 t=28 go.info.**int+0
	rel 84+4 t=28 go.info.*int+0
	rel 95+4 t=28 go.info.*int+0
go.range."".func2_argptr2_2 SDWARFRANGE size=0
go.info."".func3_argptr3_0 SDWARFINFO size=93
	0x0000 02 22 22 2e 66 75 6e 63 33 5f 61 72 67 70 74 72  ."".func3_argptr
	0x0010 33 5f 30 00 00 00 00 00 00 00 00 00 00 00 00 00  3_0.............
	0x0020 00 00 00 00 01 9c 00 00 00 00 01 0e 61 00 00 31  ............a..1
	0x0030 00 00 00 00 01 9c 0e 62 00 00 31 00 00 00 00 02  .......b..1.....
	0x0040 91 08 0e 63 00 00 31 00 00 00 00 02 91 10 0e 7e  ...c..1........~
	0x0050 72 33 00 01 31 00 00 00 00 02 91 18 00           r3..1........
	rel 20+8 t=1 "".func3_argptr3_0+0
	rel 28+8 t=1 "".func3_argptr3_0+44
	rel 38+4 t=29 gofile../home/max/my/gomacro/jit/stack_maps/stack_maps.go+0
	rel 48+4 t=28 go.info.*int+0
	rel 59+4 t=28 go.info.*int+0
	rel 71+4 t=28 go.info.*int+0
	rel 85+4 t=28 go.info.int+0
go.range."".func3_argptr3_0 SDWARFRANGE size=0
go.info."".func3_argptr3_3 SDWARFINFO size=115
	0x0000 02 22 22 2e 66 75 6e 63 33 5f 61 72 67 70 74 72  ."".func3_argptr
	0x0010 33 5f 33 00 00 00 00 00 00 00 00 00 00 00 00 00  3_3.............
	0x0020 00 00 00 00 01 9c 00 00 00 00 01 0e 41 00 01 3c  ............A..<
	0x0030 00 00 00 00 02 91 18 0e 42 00 01 3c 00 00 00 00  ........B..<....
	0x0040 02 91 20 0e 43 00 01 3c 00 00 00 00 02 91 28 0e  .. .C..<......(.
	0x0050 61 00 00 3c 00 00 00 00 01 9c 0e 62 00 00 3c 00  a..<.......b..<.
	0x0060 00 00 00 02 91 08 0e 63 00 00 3c 00 00 00 00 02  .......c..<.....
	0x0070 91 10 00                                         ...
	rel 20+8 t=1 "".func3_argptr3_3+0
	rel 28+8 t=1 "".func3_argptr3_3+28
	rel 38+4 t=29 gofile../home/max/my/gomacro/jit/stack_maps/stack_maps.go+0
	rel 48+4 t=28 go.info.*int+0
	rel 60+4 t=28 go.info.*int+0
	rel 72+4 t=28 go.info.*int+0
	rel 84+4 t=28 go.info.*int+0
	rel 95+4 t=28 go.info.*int+0
	rel 107+4 t=28 go.info.*int+0
go.range."".func3_argptr3_3 SDWARFRANGE size=0
go.info."".func4_argptr4_0 SDWARFINFO size=105
	0x0000 02 22 22 2e 66 75 6e 63 34 5f 61 72 67 70 74 72  ."".func4_argptr
	0x0010 34 5f 30 00 00 00 00 00 00 00 00 00 00 00 00 00  4_0.............
	0x0020 00 00 00 00 01 9c 00 00 00 00 01 0e 61 00 00 42  ............a..B
	0x0030 00 00 00 00 01 9c 0e 62 00 00 42 00 00 00 00 02  .......b..B.....
	0x0040 91 08 0e 63 00 00 42 00 00 00 00 02 91 10 0e 64  ...c..B........d
	0x0050 00 00 42 00 00 00 00 02 91 18 0e 7e 72 34 00 01  ..B........~r4..
	0x0060 42 00 00 00 00 02 91 20 00                       B...... .
	rel 20+8 t=1 "".func4_argptr4_0+0
	rel 28+8 t=1 "".func4_argptr4_0+43
	rel 38+4 t=29 gofile../home/max/my/gomacro/jit/stack_maps/stack_maps.go+0
	rel 48+4 t=28 go.info.*int+0
	rel 59+4 t=28 go.info.*int+0
	rel 71+4 t=28 go.info.*int+0
	rel 83+4 t=28 go.info.*int+0
	rel 97+4 t=28 go.info.int+0
go.range."".func4_argptr4_0 SDWARFRANGE size=0
go.info."".func5_argptr5_0 SDWARFINFO size=117
	0x0000 02 22 22 2e 66 75 6e 63 35 5f 61 72 67 70 74 72  ."".func5_argptr
	0x0010 35 5f 30 00 00 00 00 00 00 00 00 00 00 00 00 00  5_0.............
	0x0020 00 00 00 00 01 9c 00 00 00 00 01 0e 61 00 00 4d  ............a..M
	0x0030 00 00 00 00 01 9c 0e 62 00 00 4d 00 00 00 00 02  .......b..M.....
	0x0040 91 08 0e 63 00 00 4d 00 00 00 00 02 91 10 0e 64  ...c..M........d
	0x0050 00 00 4d 00 00 00 00 02 91 18 0e 65 00 00 4d 00  ..M........e..M.
	0x0060 00 00 00 02 91 20 0e 7e 72 35 00 01 4d 00 00 00  ..... .~r5..M...
	0x0070 00 02 91 28 00                                   ...(.
	rel 20+8 t=1 "".func5_argptr5_0+0
	rel 28+8 t=1 "".func5_argptr5_0+47
	rel 38+4 t=29 gofile../home/max/my/gomacro/jit/stack_maps/stack_maps.go+0
	rel 48+4 t=28 go.info.*int+0
	rel 59+4 t=28 go.info.*int+0
	rel 71+4 t=28 go.info.*int+0
	rel 83+4 t=28 go.info.*int+0
	rel 95+4 t=28 go.info.*int+0
	rel 109+4 t=28 go.info.int+0
go.range."".func5_argptr5_0 SDWARFRANGE size=0
go.info."".func5_argptr0_0 SDWARFINFO size=117
	0x0000 02 22 22 2e 66 75 6e 63 35 5f 61 72 67 70 74 72  ."".func5_argptr
	0x0010 30 5f 30 00 00 00 00 00 00 00 00 00 00 00 00 00  0_0.............
	0x0020 00 00 00 00 01 9c 00 00 00 00 01 0e 61 00 00 57  ............a..W
	0x0030 00 00 00 00 01 9c 0e 62 00 00 57 00 00 00 00 02  .......b..W.....
	0x0040 91 08 0e 63 00 00 57 00 00 00 00 02 91 10 0e 64  ...c..W........d
	0x0050 00 00 57 00 00 00 00 02 91 18 0e 65 00 00 57 00  ..W........e..W.
	0x0060 00 00 00 02 91 20 0e 7e 72 35 00 01 57 00 00 00  ..... .~r5..W...
	0x0070 00 02 91 28 00                                   ...(.
	rel 20+8 t=1 "".func5_argptr0_0+0
	rel 28+8 t=1 "".func5_argptr0_0+64
	rel 38+4 t=29 gofile../home/max/my/gomacro/jit/stack_maps/stack_maps.go+0
	rel 48+4 t=28 go.info.int+0
	rel 59+4 t=28 go.info.int+0
	rel 71+4 t=28 go.info.int+0
	rel 83+4 t=28 go.info.int+0
	rel 95+4 t=28 go.info.int+0
	rel 109+4 t=28 go.info.int+0
go.range."".func5_argptr0_0 SDWARFRANGE size=0
go.info."".func7_argptr7_0 SDWARFINFO size=141
	0x0000 02 22 22 2e 66 75 6e 63 37 5f 61 72 67 70 74 72  ."".func7_argptr
	0x0010 37 5f 30 00 00 00 00 00 00 00 00 00 00 00 00 00  7_0.............
	0x0020 00 00 00 00 01 9c 00 00 00 00 01 0e 61 00 00 63  ............a..c
	0x0030 00 00 00 00 01 9c 0e 62 00 00 63 00 00 00 00 02  .......b..c.....
	0x0040 91 08 0e 63 00 00 63 00 00 00 00 02 91 10 0e 64  ...c..c........d
	0x0050 00 00 63 00 00 00 00 02 91 18 0e 65 00 00 63 00  ..c........e..c.
	0x0060 00 00 00 02 91 20 0e 66 00 00 63 00 00 00 00 02  ..... .f..c.....
	0x0070 91 28 0e 67 00 00 63 00 00 00 00 02 91 30 0e 7e  .(.g..c......0.~
	0x0080 72 37 00 01 63 00 00 00 00 02 91 38 00           r7..c......8.
	rel 20+8 t=1 "".func7_argptr7_0+0
	rel 28+8 t=1 "".func7_argptr7_0+86
	rel 38+4 t=29 gofile../home/max/my/gomacro/jit/stack_maps/stack_maps.go+0
	rel 48+4 t=28 go.info.*int+0
	rel 59+4 t=28 go.info.*int+0
	rel 71+4 t=28 go.info.*int+0
	rel 83+4 t=28 go.info.*int+0
	rel 95+4 t=28 go.info.*int+0
	rel 107+4 t=28 go.info.*int+0
	rel 119+4 t=28 go.info.*int+0
	rel 133+4 t=28 go.info.int+0
go.range."".func7_argptr7_0 SDWARFRANGE size=0
go.info."".func7_argptr7_7 SDWARFINFO size=289
	0x0000 02 22 22 2e 66 75 6e 63 37 5f 61 72 67 70 74 72  ."".func7_argptr
	0x0010 37 5f 37 00 00 00 00 00 00 00 00 00 00 00 00 00  7_7.............
	0x0020 00 00 00 00 01 9c 00 00 00 00 01 09 26 61 00 71  ............&a.q
	0x0030 00 00 00 00 02 91 68 09 26 62 00 71 00 00 00 00  ......h.&b.q....
	0x0040 02 91 60 09 26 63 00 71 00 00 00 00 02 91 58 09  ..`.&c.q......X.
	0x0050 26 64 00 71 00 00 00 00 02 91 50 09 26 65 00 71  &d.q......P.&e.q
	0x0060 00 00 00 00 02 91 48 09 26 66 00 71 00 00 00 00  ......H.&f.q....
	0x0070 02 91 40 0e 41 00 01 71 00 00 00 00 02 91 38 0e  ..@.A..q......8.
	0x0080 42 00 01 71 00 00 00 00 03 91 c0 00 0e 43 00 01  B..q.........C..
	0x0090 71 00 00 00 00 03 91 c8 00 0e 44 00 01 71 00 00  q.........D..q..
	0x00a0 00 00 03 91 d0 00 0e 45 00 01 71 00 00 00 00 03  .......E..q.....
	0x00b0 91 d8 00 0e 46 00 01 71 00 00 00 00 03 91 e0 00  ....F..q........
	0x00c0 0e 47 00 01 71 00 00 00 00 03 91 e8 00 0e 61 00  .G..q.........a.
	0x00d0 00 71 00 00 00 00 01 9c 0e 62 00 00 71 00 00 00  .q.......b..q...
	0x00e0 00 02 91 08 0e 63 00 00 71 00 00 00 00 02 91 10  .....c..q.......
	0x00f0 0e 64 00 00 71 00 00 00 00 02 91 18 0e 65 00 00  .d..q........e..
	0x0100 71 00 00 00 00 02 91 20 0e 66 00 00 71 00 00 00  q...... .f..q...
	0x0110 00 02 91 28 0e 67 00 00 71 00 00 00 00 02 91 30  ...(.g..q......0
	0x0120 00                                               .
	rel 20+8 t=1 "".func7_argptr7_7+0
	rel 28+8 t=1 "".func7_argptr7_7+574
	rel 38+4 t=29 gofile../home/max/my/gomacro/jit/stack_maps/stack_maps.go+0
	rel 48+4 t=28 go.info.**int+0
	rel 60+4 t=28 go.info.**int+0
	rel 72+4 t=28 go.info.**int+0
	rel 84+4 t=28 go.info.**int+0
	rel 96+4 t=28 go.info.**int+0
	rel 108+4 t=28 go.info.**int+0
	rel 120+4 t=28 go.info.**int+0
	rel 132+4 t=28 go.info.**int+0
	rel 145+4 t=28 go.info.**int+0
	rel 158+4 t=28 go.info.**int+0
	rel 171+4 t=28 go.info.**int+0
	rel 184+4 t=28 go.info.**int+0
	rel 197+4 t=28 go.info.**int+0
	rel 210+4 t=28 go.info.*int+0
	rel 221+4 t=28 go.info.*int+0
	rel 233+4 t=28 go.info.*int+0
	rel 245+4 t=28 go.info.*int+0
	rel 257+4 t=28 go.info.*int+0
	rel 269+4 t=28 go.info.*int+0
	rel 281+4 t=28 go.info.*int+0
go.range."".func7_argptr7_7 SDWARFRANGE size=0
go.info."".func8_argptr8_0 SDWARFINFO size=154
	0x0000 02 22 22 2e 66 75 6e 63 38 5f 61 72 67 70 74 72  ."".func8_argptr
	0x0010 38 5f 30 00 00 00 00 00 00 00 00 00 00 00 00 00  8_0.............
	0x0020 00 00 00 00 01 9c 00 00 00 00 01 0e 61 00 00 75  ............a..u
	0x0030 00 00 00 00 01 9c 0e 62 00 00 75 00 00 00 00 02  .......b..u.....
	0x0040 91 08 0e 63 00 00 75 00 00 00 00 02 91 10 0e 64  ...c..u........d
	0x0050 00 00 75 00 00 00 00 02 91 18 0e 65 00 00 75 00  ..u........e..u.
	0x0060 00 00 00 02 91 20 0e 66 00 00 75 00 00 00 00 02  ..... .f..u.....
	0x0070 91 28 0e 67 00 00 75 00 00 00 00 02 91 30 0e 68  .(.g..u......0.h
	0x0080 00 00 75 00 00 00 00 02 91 38 0e 7e 72 38 00 01  ..u......8.~r8..
	0x0090 75 00 00 00 00 03 91 c0 00 00                    u.........
	rel 20+8 t=1 "".func8_argptr8_0+0
	rel 28+8 t=1 "".func8_argptr8_0+91
	rel 38+4 t=29 gofile../home/max/my/gomacro/jit/stack_maps/stack_maps.go+0
	rel 48+4 t=28 go.info.*int+0
	rel 59+4 t=28 go.info.*int+0
	rel 71+4 t=28 go.info.*int+0
	rel 83+4 t=28 go.info.*int+0
	rel 95+4 t=28 go.info.*int+0
	rel 107+4 t=28 go.info.*int+0
	rel 119+4 t=28 go.info.*int+0
	rel 131+4 t=28 go.info.*int+0
	rel 145+4 t=28 go.info.int+0
go.range."".func8_argptr8_0 SDWARFRANGE size=0
go.info."".func31_argptr31_0 SDWARFINFO size=493
	0x0000 02 22 22 2e 66 75 6e 63 33 31 5f 61 72 67 70 74  ."".func31_argpt
	0x0010 72 33 31 5f 30 00 00 00 00 00 00 00 00 00 00 00  r31_0...........
	0x0020 00 00 00 00 00 00 01 9c 00 00 00 00 01 0e 61 00  ..............a.
	0x0030 00 83 01 00 00 00 00 01 9c 0e 61 61 00 00 83 01  ..........aa....
	0x0040 00 00 00 00 03 91 d0 01 0e 61 62 00 00 83 01 00  .........ab.....
	0x0050 00 00 00 03 91 d8 01 0e 61 63 00 00 83 01 00 00  ........ac......
	0x0060 00 00 03 91 e0 01 0e 61 64 00 00 83 01 00 00 00  .......ad.......
	0x0070 00 03 91 e8 01 0e 61 65 00 00 83 01 00 00 00 00  ......ae........
	0x0080 03 91 f0 01 0e 62 00 00 83 01 00 00 00 00 02 91  .....b..........
	0x0090 08 0e 63 00 00 83 01 00 00 00 00 02 91 10 0e 64  ..c............d
	0x00a0 00 00 83 01 00 00 00 00 02 91 18 0e 65 00 00 83  ............e...
	0x00b0 01 00 00 00 00 02 91 20 0e 66 00 00 83 01 00 00  ....... .f......
	0x00c0 00 00 02 91 28 0e 67 00 00 83 01 00 00 00 00 02  ....(.g.........
	0x00d0 91 30 0e 68 00 00 83 01 00 00 00 00 02 91 38 0e  .0.h..........8.
	0x00e0 69 00 00 83 01 00 00 00 00 03 91 c0 00 0e 6a 00  i.............j.
	0x00f0 00 83 01 00 00 00 00 03 91 c8 00 0e 6b 00 00 83  ............k...
	0x0100 01 00 00 00 00 03 91 d0 00 0e 6c 00 00 83 01 00  ..........l.....
	0x0110 00 00 00 03 91 d8 00 0e 6d 00 00 83 01 00 00 00  ........m.......
	0x0120 00 03 91 e0 00 0e 6e 00 00 83 01 00 00 00 00 03  ......n.........
	0x0130 91 e8 00 0e 6f 00 00 83 01 00 00 00 00 03 91 f0  ....o...........
	0x0140 00 0e 70 00 00 83 01 00 00 00 00 03 91 f8 00 0e  ..p.............
	0x0150 71 00 00 83 01 00 00 00 00 03 91 80 01 0e 72 00  q.............r.
	0x0160 00 83 01 00 00 00 00 03 91 88 01 0e 73 00 00 83  ............s...
	0x0170 01 00 00 00 00 03 91 90 01 0e 74 00 00 83 01 00  ..........t.....
	0x0180 00 00 00 03 91 98 01 0e 75 00 00 83 01 00 00 00  ........u.......
	0x0190 00 03 91 a0 01 0e 76 00 00 83 01 00 00 00 00 03  ......v.........
	0x01a0 91 a8 01 0e 77 00 00 83 01 00 00 00 00 03 91 b0  ....w...........
	0x01b0 01 0e 78 00 00 83 01 00 00 00 00 03 91 b8 01 0e  ..x.............
	0x01c0 79 00 00 83 01 00 00 00 00 03 91 c0 01 0e 7a 00  y.............z.
	0x01d0 00 83 01 00 00 00 00 03 91 c8 01 0e 7e 72 33 31  ............~r31
	0x01e0 00 01 83 01 00 00 00 00 03 91 f8 01 00           .............
	rel 22+8 t=1 "".func31_argptr31_0+0
	rel 30+8 t=1 "".func31_argptr31_0+431
	rel 40+4 t=29 gofile../home/max/my/gomacro/jit/stack_maps/stack_maps.go+0
	rel 51+4 t=28 go.info.*int+0
	rel 64+4 t=28 go.info.*int+0
	rel 79+4 t=28 go.info.*int+0
	rel 94+4 t=28 go.info.*int+0
	rel 109+4 t=28 go.info.*int+0
	rel 124+4 t=28 go.info.*int+0
	rel 138+4 t=28 go.info.*int+0
	rel 151+4 t=28 go.info.*int+0
	rel 164+4 t=28 go.info.*int+0
	rel 177+4 t=28 go.info.*int+0
	rel 190+4 t=28 go.info.*int+0
	rel 203+4 t=28 go.info.*int+0
	rel 216+4 t=28 go.info.*int+0
	rel 229+4 t=28 go.info.*int+0
	rel 243+4 t=28 go.info.*int+0
	rel 257+4 t=28 go.info.*int+0
	rel 271+4 t=28 go.info.*int+0
	rel 285+4 t=28 go.info.*int+0
	rel 299+4 t=28 go.info.*int+0
	rel 313+4 t=28 go.info.*int+0
	rel 327+4 t=28 go.info.*int+0
	rel 341+4 t=28 go.info.*int+0
	rel 355+4 t=28 go.info.*int+0
	rel 369+4 t=28 go.info.*int+0
	rel 383+4 t=28 go.info.*int+0
	rel 397+4 t=28 go.info.*int+0
	rel 411+4 t=28 go.info.*int+0
	rel 425+4 t=28 go.info.*int+0
	rel 439+4 t=28 go.info.*int+0
	rel 453+4 t=28 go.info.*int+0
	rel 467+4 t=28 go.info.*int+0
	rel 484+4 t=28 go.info.int+0
go.range."".func31_argptr31_0 SDWARFRANGE size=0
go.info."".func32_argptr32_0 SDWARFINFO size=508
	0x0000 02 22 22 2e 66 75 6e 63 33 32 5f 61 72 67 70 74  ."".func32_argpt
	0x0010 72 33 32 5f 30 00 00 00 00 00 00 00 00 00 00 00  r32_0...........
	0x0020 00 00 00 00 00 00 01 9c 00 00 00 00 01 0e 61 00  ..............a.
	0x0030 00 a9 01 00 00 00 00 01 9c 0e 61 61 00 00 a9 01  ..........aa....
	0x0040 00 00 00 00 03 91 d0 01 0e 61 62 00 00 a9 01 00  .........ab.....
	0x0050 00 00 00 03 91 d8 01 0e 61 63 00 00 a9 01 00 00  ........ac......
	0x0060 00 00 03 91 e0 01 0e 61 64 00 00 a9 01 00 00 00  .......ad.......
	0x0070 00 03 91 e8 01 0e 61 65 00 00 a9 01 00 00 00 00  ......ae........
	0x0080 03 91 f0 01 0e 61 66 00 00 a9 01 00 00 00 00 03  .....af.........
	0x0090 91 f8 01 0e 62 00 00 a9 01 00 00 00 00 02 91 08  ....b...........
	0x00a0 0e 63 00 00 a9 01 00 00 00 00 02 91 10 0e 64 00  .c............d.
	0x00b0 00 a9 01 00 00 00 00 02 91 18 0e 65 00 00 a9 01  ...........e....
	0x00c0 00 00 00 00 02 91 20 0e 66 00 00 a9 01 00 00 00  ...... .f.......
	0x00d0 00 02 91 28 0e 67 00 00 a9 01 00 00 00 00 02 91  ...(.g..........
	0x00e0 30 0e 68 00 00 a9 01 00 00 00 00 02 91 38 0e 69  0.h..........8.i
	0x00f0 00 00 a9 01 00 00 00 00 03 91 c0 00 0e 6a 00 00  .............j..
	0x0100 a9 01 00 00 00 00 03 91 c8 00 0e 6b 00 00 a9 01  ...........k....
	0x0110 00 00 00 00 03 91 d0 00 0e 6c 00 00 a9 01 00 00  .........l......
	0x0120 00 00 03 91 d8 00 0e 6d 00 00 a9 01 00 00 00 00  .......m........
	0x0130 03 91 e0 00 0e 6e 00 00 a9 01 00 00 00 00 03 91  .....n..........
	0x0140 e8 00 0e 6f 00 00 a9 01 00 00 00 00 03 91 f0 00  ...o............
	0x0150 0e 70 00 00 a9 01 00 00 00 00 03 91 f8 00 0e 71  .p.............q
	0x0160 00 00 a9 01 00 00 00 00 03 91 80 01 0e 72 00 00  .............r..
	0x0170 a9 01 00 00 00 00 03 91 88 01 0e 73 00 00 a9 01  ...........s....
	0x0180 00 00 00 00 03 91 90 01 0e 74 00 00 a9 01 00 00  .........t......
	0x0190 00 00 03 91 98 01 0e 75 00 00 a9 01 00 00 00 00  .......u........
	0x01a0 03 91 a0 01 0e 76 00 00 a9 01 00 00 00 00 03 91  .....v..........
	0x01b0 a8 01 0e 77 00 00 a9 01 00 00 00 00 03 91 b0 01  ...w............
	0x01c0 0e 78 00 00 a9 01 00 00 00 00 03 91 b8 01 0e 79  .x.............y
	0x01d0 00 00 a9 01 00 00 00 00 03 91 c0 01 0e 7a 00 00  .............z..
	0x01e0 a9 01 00 00 00 00 03 91 c8 01 0e 7e 72 33 32 00  ...........~r32.
	0x01f0 01 a9 01 00 00 00 00 03 91 80 02 00              ............
	rel 22+8 t=1 "".func32_argptr32_0+0
	rel 30+8 t=1 "".func32_argptr32_0+439
	rel 40+4 t=29 gofile../home/max/my/gomacro/jit/stack_maps/stack_maps.go+0
	rel 51+4 t=28 go.info.*int+0
	rel 64+4 t=28 go.info.*int+0
	rel 79+4 t=28 go.info.*int+0
	rel 94+4 t=28 go.info.*int+0
	rel 109+4 t=28 go.info.*int+0
	rel 124+4 t=28 go.info.*int+0
	rel 139+4 t=28 go.info.*int+0
	rel 153+4 t=28 go.info.*int+0
	rel 166+4 t=28 go.info.*int+0
	rel 179+4 t=28 go.info.*int+0
	rel 192+4 t=28 go.info.*int+0
	rel 205+4 t=28 go.info.*int+0
	rel 218+4 t=28 go.info.*int+0
	rel 231+4 t=28 go.info.*int+0
	rel 244+4 t=28 go.info.*int+0
	rel 258+4 t=28 go.info.*int+0
	rel 272+4 t=28 go.info.*int+0
	rel 286+4 t=28 go.info.*int+0
	rel 300+4 t=28 go.info.*int+0
	rel 314+4 t=28 go.info.*int+0
	rel 328+4 t=28 go.info.*int+0
	rel 342+4 t=28 go.info.*int+0
	rel 356+4 t=28 go.info.*int+0
	rel 370+4 t=28 go.info.*int+0
	rel 384+4 t=28 go.info.*int+0
	rel 398+4 t=28 go.info.*int+0
	rel 412+4 t=28 go.info.*int+0
	rel 426+4 t=28 go.info.*int+0
	rel 440+4 t=28 go.info.*int+0
	rel 454+4 t=28 go.info.*int+0
	rel 468+4 t=28 go.info.*int+0
	rel 482+4 t=28 go.info.*int+0
	rel 499+4 t=28 go.info.int+0
go.range."".func32_argptr32_0 SDWARFRANGE size=0
go.info."".func1_argptr0_1 SDWARFINFO size=71
	0x0000 02 22 22 2e 66 75 6e 63 31 5f 61 72 67 70 74 72  ."".func1_argptr
	0x0010 30 5f 31 00 00 00 00 00 00 00 00 00 00 00 00 00  0_1.............
	0x0020 00 00 00 00 01 9c 00 00 00 00 01 0e 61 00 00 cf  ............a...
	0x0030 01 00 00 00 00 01 9c 0e 7e 72 31 00 01 cf 01 00  ........~r1.....
	0x0040 00 00 00 02 91 08 00                             .......
	rel 20+8 t=1 "".func1_argptr0_1+0
	rel 28+8 t=1 "".func1_argptr0_1+13
	rel 38+4 t=29 gofile../home/max/my/gomacro/jit/stack_maps/stack_maps.go+0
	rel 49+4 t=28 go.info.int+0
	rel 63+4 t=28 go.info.*int+0
go.range."".func1_argptr0_1 SDWARFRANGE size=0
""._0 SBSS size=8
runtime.gcbits.01 SRODATA dupok size=1
	0x0000 01                                               .
type..namedata.**int- SRODATA dupok size=8
	0x0000 00 00 05 2a 2a 69 6e 74                          ...**int
type.**int SRODATA dupok size=56
	0x0000 08 00 00 00 00 00 00 00 08 00 00 00 00 00 00 00  ................
	0x0010 75 9c 95 05 00 08 08 36 00 00 00 00 00 00 00 00  u......6........
	0x0020 00 00 00 00 00 00 00 00 00 00 00 00 00 00 00 00  ................
	0x0030 00 00 00 00 00 00 00 00                          ........
	rel 24+8 t=1 runtime.algarray+80
	rel 32+8 t=1 runtime.gcbits.01+0
	rel 40+4 t=5 type..namedata.**int-+0
	rel 48+8 t=1 type.*int+0
type..importpath.unsafe. SRODATA dupok size=9
	0x0000 00 00 06 75 6e 73 61 66 65                       ...unsafe
gclocals·f207267fbf96a0178e8758c6e3e0ce28 SRODATA dupok size=9
	0x0000 01 00 00 00 02 00 00 00 00                       .........
gclocals·33cdeccccebe80329f1fdbee7f5874cb SRODATA dupok size=8
	0x0000 01 00 00 00 00 00 00 00                          ........
gclocals·aef1f7ba6e2630c93a51843d99f5a28a SRODATA dupok size=9
	0x0000 01 00 00 00 02 00 00 00 01                       .........
gclocals·8f9cec06d1ae35cc9900c511c5e4bdab SRODATA dupok size=9
	0x0000 01 00 00 00 03 00 00 00 03                       .........
gclocals·d7e90e31b8caf40b4a816bc6493d0278 SRODATA dupok size=10
	0x0000 02 00 00 00 04 00 00 00 03 02                    ..........
gclocals·9fb7f0986f647f17cb53dda1484e0f7a SRODATA dupok size=10
	0x0000 02 00 00 00 01 00 00 00 00 01                    ..........
gclocals·41e09b51c5c69a07e9cde7306b03f8c0 SRODATA dupok size=9
	0x0000 01 00 00 00 04 00 00 00 07                       .........
gclocals·26c19b003b4032a46d3e8db29831f3fe SRODATA dupok size=9
	0x0000 01 00 00 00 06 00 00 00 00                       .........
gclocals·1796f354e2ee64b72a4c7c668a1a7161 SRODATA dupok size=9
	0x0000 01 00 00 00 05 00 00 00 0f                       .........
gclocals·e47c75ed031dcaac5b24e58ca743f6ee SRODATA dupok size=9
	0x0000 01 00 00 00 06 00 00 00 0f                       .........
gclocals·e5f9455b7f339e9e2483020ccff91f2a SRODATA dupok size=9
	0x0000 01 00 00 00 08 00 00 00 7f                       .........
gclocals·1ffc4335e650bddd934df7eed5367235 SRODATA dupok size=22
	0x0000 07 00 00 00 0e 00 00 00 7f 00 7e 00 7c 00 78 00  ..........~.|.x.
	0x0010 70 00 60 00 40 00                                p.`.@.
gclocals·b88d212e1dddf05b11066db7e199ff36 SRODATA dupok size=15
	0x0000 07 00 00 00 06 00 00 00 00 20 30 38 3c 3e 3f     ......... 08<>?
gclocals·24ab8eb88756bfa8a723f13ec05c8565 SRODATA dupok size=10
	0x0000 01 00 00 00 09 00 00 00 ff 00                    ..........
gclocals·18eb108dd69ac8aded0458079b4a39ed SRODATA dupok size=12
	0x0000 01 00 00 00 20 00 00 00 ff ff ff 7f              .... .......
gclocals·431cd661679bfc6da2d30d11c832c73c SRODATA dupok size=13
	0x0000 01 00 00 00 21 00 00 00 ff ff ff ff 00           ....!........
